	.section	__TEXT,__text,regular,pure_instructions
	.macosx_version_min 10, 12
	.globl	__Z9Interpretv
	.align	4, 0x90
__Z9Interpretv:                         ## @_Z9Interpretv
	.cfi_startproc
## BB#0:
	pushq	%rbp
Ltmp0:
	.cfi_def_cfa_offset 16
Ltmp1:
	.cfi_offset %rbp, -16
	movq	%rsp, %rbp
Ltmp2:
	.cfi_def_cfa_register %rbp
	popq	%rbp
	retq
	.cfi_endproc

	.globl	__Z7RunModev
	.align	4, 0x90
__Z7RunModev:                           ## @_Z7RunModev
	.cfi_startproc
## BB#0:
	pushq	%rbp
Ltmp3:
	.cfi_def_cfa_offset 16
Ltmp4:
	.cfi_offset %rbp, -16
	movq	%rsp, %rbp
Ltmp5:
	.cfi_def_cfa_register %rbp
	popq	%rbp
	retq
	.cfi_endproc

	.globl	__Z9InputModev
	.align	4, 0x90
__Z9InputModev:                         ## @_Z9InputModev
Lfunc_begin0:
	.cfi_startproc
	.cfi_personality 155, ___gxx_personality_v0
	.cfi_lsda 16, Lexception0
## BB#0:
	pushq	%rbp
Ltmp62:
	.cfi_def_cfa_offset 16
Ltmp63:
	.cfi_offset %rbp, -16
	movq	%rsp, %rbp
Ltmp64:
	.cfi_def_cfa_register %rbp
	subq	$608, %rsp              ## imm = 0x260
	xorl	%esi, %esi
	movl	$24, %eax
	movl	%eax, %edx
	leaq	-344(%rbp), %rcx
	movq	%rcx, -320(%rbp)
	movq	-320(%rbp), %rcx
	movq	%rcx, -312(%rbp)
	movq	-312(%rbp), %rcx
	movq	%rcx, -304(%rbp)
	movq	-304(%rbp), %rdi
	movq	%rdi, -296(%rbp)
	movq	-296(%rbp), %rdi
	movq	%rdi, -288(%rbp)
	movq	-288(%rbp), %rdi
	movq	%rdi, %r8
	movq	%r8, -280(%rbp)
	movq	%rcx, -472(%rbp)        ## 8-byte Spill
	callq	_memset
	movq	-472(%rbp), %rcx        ## 8-byte Reload
	movq	%rcx, -256(%rbp)
	movq	-256(%rbp), %rdx
	movq	%rdx, -248(%rbp)
	movq	-248(%rbp), %rdx
	movq	%rdx, -240(%rbp)
	movq	-240(%rbp), %rdx
	movq	%rdx, -264(%rbp)
	movl	$0, -268(%rbp)
LBB2_1:                                 ## =>This Inner Loop Header: Depth=1
	cmpl	$3, -268(%rbp)
	jae	LBB2_3
## BB#2:                                ##   in Loop: Header=BB2_1 Depth=1
	movl	-268(%rbp), %eax
	movl	%eax, %ecx
	movq	-264(%rbp), %rdx
	movq	$0, (%rdx,%rcx,8)
	movl	-268(%rbp), %eax
	addl	$1, %eax
	movl	%eax, -268(%rbp)
	jmp	LBB2_1
LBB2_3:
	leaq	-376(%rbp), %rax
	movq	%rax, -224(%rbp)
	leaq	L_.str(%rip), %rax
	movq	%rax, -232(%rbp)
	movq	-224(%rbp), %rcx
	movq	%rcx, -208(%rbp)
	movq	%rax, -216(%rbp)
	movq	-208(%rbp), %rax
	movq	%rax, -200(%rbp)
	movq	%rax, -192(%rbp)
	movq	%rax, -184(%rbp)
	movq	%rax, -176(%rbp)
	movq	$0, 16(%rax)
	movq	$0, 8(%rax)
	movq	$0, (%rax)
	movq	-216(%rbp), %rcx
Ltmp6:
	movq	%rcx, %rdi
	movq	%rax, -480(%rbp)        ## 8-byte Spill
	movq	%rcx, -488(%rbp)        ## 8-byte Spill
	callq	__ZNSt3__111char_traitsIcE6lengthEPKc
Ltmp7:
	movq	%rax, -496(%rbp)        ## 8-byte Spill
	jmp	LBB2_4
LBB2_4:
Ltmp8:
	movq	-480(%rbp), %rdi        ## 8-byte Reload
	movq	-488(%rbp), %rsi        ## 8-byte Reload
	movq	-496(%rbp), %rdx        ## 8-byte Reload
	callq	__ZNSt3__112basic_stringIcNS_11char_traitsIcEENS_9allocatorIcEEE6__initEPKcm
Ltmp9:
	jmp	LBB2_5
LBB2_5:
	jmp	LBB2_6
LBB2_6:
Ltmp10:
	leaq	-376(%rbp), %rdi
	callq	__ZL5printNSt3__112basic_stringIcNS_11char_traitsIcEENS_9allocatorIcEEEE
Ltmp11:
	jmp	LBB2_7
LBB2_7:
Ltmp15:
	leaq	-376(%rbp), %rdi
	callq	__ZNSt3__112basic_stringIcNS_11char_traitsIcEENS_9allocatorIcEEED1Ev
Ltmp16:
	jmp	LBB2_8
LBB2_8:
	jmp	LBB2_9
LBB2_9:                                 ## =>This Inner Loop Header: Depth=1
	movq	__ZNSt3__13cinE@GOTPCREL(%rip), %rax
	movq	%rax, -160(%rbp)
	leaq	-344(%rbp), %rax
	movq	%rax, -168(%rbp)
	movq	-160(%rbp), %rcx
	movq	(%rcx), %rdx
	movq	-24(%rdx), %rdx
	movq	%rcx, %rsi
	addq	%rdx, %rsi
	movq	%rsi, -120(%rbp)
	movb	$10, -121(%rbp)
	movq	-120(%rbp), %rsi
Ltmp17:
	leaq	-136(%rbp), %rdi
	movq	%rax, -504(%rbp)        ## 8-byte Spill
	movq	%rcx, -512(%rbp)        ## 8-byte Spill
	callq	__ZNKSt3__18ios_base6getlocEv
Ltmp18:
	jmp	LBB2_10
LBB2_10:                                ##   in Loop: Header=BB2_9 Depth=1
	leaq	-136(%rbp), %rax
	movq	%rax, -112(%rbp)
Ltmp19:
	movq	__ZNSt3__15ctypeIcE2idE@GOTPCREL(%rip), %rsi
	movq	%rax, %rdi
	callq	__ZNKSt3__16locale9use_facetERNS0_2idE
Ltmp20:
	movq	%rax, -520(%rbp)        ## 8-byte Spill
	jmp	LBB2_11
LBB2_11:                                ##   in Loop: Header=BB2_9 Depth=1
	movb	-121(%rbp), %al
	movq	-520(%rbp), %rcx        ## 8-byte Reload
	movq	%rcx, -96(%rbp)
	movb	%al, -97(%rbp)
	movq	-96(%rbp), %rdx
	movq	(%rdx), %rsi
	movq	56(%rsi), %rsi
	movsbl	-97(%rbp), %edi
Ltmp21:
	movl	%edi, -524(%rbp)        ## 4-byte Spill
	movq	%rdx, %rdi
	movl	-524(%rbp), %r8d        ## 4-byte Reload
	movq	%rsi, -536(%rbp)        ## 8-byte Spill
	movl	%r8d, %esi
	movq	-536(%rbp), %rdx        ## 8-byte Reload
	callq	*%rdx
Ltmp22:
	movb	%al, -537(%rbp)         ## 1-byte Spill
	jmp	LBB2_15
LBB2_12:
Ltmp23:
	movl	%edx, %ecx
	movq	%rax, -144(%rbp)
	movl	%ecx, -148(%rbp)
Ltmp24:
	leaq	-136(%rbp), %rdi
	callq	__ZNSt3__16localeD1Ev
Ltmp25:
	jmp	LBB2_13
LBB2_13:
	movq	-144(%rbp), %rax
	movl	-148(%rbp), %ecx
	movq	%rax, -552(%rbp)        ## 8-byte Spill
	movl	%ecx, -556(%rbp)        ## 4-byte Spill
	jmp	LBB2_32
LBB2_14:
Ltmp26:
	movl	%edx, %ecx
	movq	%rax, %rdi
	movl	%ecx, -560(%rbp)        ## 4-byte Spill
	callq	___clang_call_terminate
LBB2_15:                                ##   in Loop: Header=BB2_9 Depth=1
Ltmp27:
	leaq	-136(%rbp), %rdi
	callq	__ZNSt3__16localeD1Ev
Ltmp28:
	jmp	LBB2_16
LBB2_16:                                ##   in Loop: Header=BB2_9 Depth=1
Ltmp29:
	movb	-537(%rbp), %al         ## 1-byte Reload
	movsbl	%al, %edx
	movq	-512(%rbp), %rdi        ## 8-byte Reload
	movq	-504(%rbp), %rsi        ## 8-byte Reload
	callq	__ZNSt3__17getlineIcNS_11char_traitsIcEENS_9allocatorIcEEEERNS_13basic_istreamIT_T0_EES9_RNS_12basic_stringIS6_S7_T1_EES6_
Ltmp30:
	movq	%rax, -568(%rbp)        ## 8-byte Spill
	jmp	LBB2_17
LBB2_17:                                ##   in Loop: Header=BB2_9 Depth=1
	jmp	LBB2_18
LBB2_18:                                ##   in Loop: Header=BB2_9 Depth=1
	movq	-568(%rbp), %rax        ## 8-byte Reload
	movq	(%rax), %rcx
	movq	-24(%rcx), %rcx
	addq	%rcx, %rax
	movq	%rax, -88(%rbp)
	movq	-88(%rbp), %rax
	movq	%rax, -80(%rbp)
	movq	-80(%rbp), %rax
	movq	%rax, -72(%rbp)
	movq	-72(%rbp), %rax
	movl	32(%rax), %edx
	andl	$5, %edx
	cmpl	$0, %edx
	setne	%sil
	xorb	$-1, %sil
	movb	%sil, -569(%rbp)        ## 1-byte Spill
## BB#19:                               ##   in Loop: Header=BB2_9 Depth=1
	movb	-569(%rbp), %al         ## 1-byte Reload
	testb	$1, %al
	jne	LBB2_20
	jmp	LBB2_42
LBB2_20:                                ##   in Loop: Header=BB2_9 Depth=1
Ltmp31:
	leaq	-440(%rbp), %rdi
	leaq	-344(%rbp), %rsi
	callq	__ZNSt3__112basic_stringIcNS_11char_traitsIcEENS_9allocatorIcEEEC1ERKS5_
Ltmp32:
	jmp	LBB2_21
LBB2_21:                                ##   in Loop: Header=BB2_9 Depth=1
Ltmp33:
	leaq	-416(%rbp), %rdi
	leaq	-352(%rbp), %rsi
	leaq	-440(%rbp), %rdx
	callq	__ZN15YASSInterpreter9InterpretENSt3__112basic_stringIcNS0_11char_traitsIcEENS0_9allocatorIcEEEE
Ltmp34:
	jmp	LBB2_22
LBB2_22:                                ##   in Loop: Header=BB2_9 Depth=1
Ltmp35:
	leaq	-416(%rbp), %rdi
	callq	__ZL6stdOutNSt3__112basic_stringIcNS_11char_traitsIcEENS_9allocatorIcEEEE
Ltmp36:
	jmp	LBB2_23
LBB2_23:                                ##   in Loop: Header=BB2_9 Depth=1
Ltmp40:
	leaq	-416(%rbp), %rdi
	callq	__ZNSt3__112basic_stringIcNS_11char_traitsIcEENS_9allocatorIcEEED1Ev
Ltmp41:
	jmp	LBB2_24
LBB2_24:                                ##   in Loop: Header=BB2_9 Depth=1
Ltmp45:
	leaq	-440(%rbp), %rdi
	callq	__ZNSt3__112basic_stringIcNS_11char_traitsIcEENS_9allocatorIcEEED1Ev
Ltmp46:
	jmp	LBB2_25
LBB2_25:                                ##   in Loop: Header=BB2_9 Depth=1
	leaq	-464(%rbp), %rax
	movq	%rax, -56(%rbp)
	leaq	L_.str(%rip), %rax
	movq	%rax, -64(%rbp)
	movq	-56(%rbp), %rcx
	movq	%rcx, -40(%rbp)
	movq	%rax, -48(%rbp)
	movq	-40(%rbp), %rax
	movq	%rax, -32(%rbp)
	movq	%rax, -24(%rbp)
	movq	%rax, -16(%rbp)
	movq	%rax, -8(%rbp)
	movq	$0, 16(%rax)
	movq	$0, 8(%rax)
	movq	$0, (%rax)
	movq	-48(%rbp), %rcx
Ltmp47:
	movq	%rcx, %rdi
	movq	%rax, -584(%rbp)        ## 8-byte Spill
	movq	%rcx, -592(%rbp)        ## 8-byte Spill
	callq	__ZNSt3__111char_traitsIcE6lengthEPKc
Ltmp48:
	movq	%rax, -600(%rbp)        ## 8-byte Spill
	jmp	LBB2_26
LBB2_26:                                ##   in Loop: Header=BB2_9 Depth=1
Ltmp49:
	movq	-584(%rbp), %rdi        ## 8-byte Reload
	movq	-592(%rbp), %rsi        ## 8-byte Reload
	movq	-600(%rbp), %rdx        ## 8-byte Reload
	callq	__ZNSt3__112basic_stringIcNS_11char_traitsIcEENS_9allocatorIcEEE6__initEPKcm
Ltmp50:
	jmp	LBB2_27
LBB2_27:                                ##   in Loop: Header=BB2_9 Depth=1
	jmp	LBB2_28
LBB2_28:                                ##   in Loop: Header=BB2_9 Depth=1
Ltmp51:
	leaq	-464(%rbp), %rdi
	callq	__ZL5printNSt3__112basic_stringIcNS_11char_traitsIcEENS_9allocatorIcEEEE
Ltmp52:
	jmp	LBB2_29
LBB2_29:                                ##   in Loop: Header=BB2_9 Depth=1
Ltmp56:
	leaq	-464(%rbp), %rdi
	callq	__ZNSt3__112basic_stringIcNS_11char_traitsIcEENS_9allocatorIcEEED1Ev
Ltmp57:
	jmp	LBB2_30
LBB2_30:                                ##   in Loop: Header=BB2_9 Depth=1
	jmp	LBB2_9
LBB2_31:
Ltmp58:
	movl	%edx, %ecx
	movq	%rax, -552(%rbp)        ## 8-byte Spill
	movl	%ecx, -556(%rbp)        ## 4-byte Spill
	jmp	LBB2_32
LBB2_32:
	movl	-556(%rbp), %eax        ## 4-byte Reload
	movq	-552(%rbp), %rcx        ## 8-byte Reload
	movq	%rcx, -384(%rbp)
	movl	%eax, -388(%rbp)
	jmp	LBB2_43
LBB2_33:
Ltmp12:
	movl	%edx, %ecx
	movq	%rax, -384(%rbp)
	movl	%ecx, -388(%rbp)
Ltmp13:
	leaq	-376(%rbp), %rdi
	callq	__ZNSt3__112basic_stringIcNS_11char_traitsIcEENS_9allocatorIcEEED1Ev
Ltmp14:
	jmp	LBB2_34
LBB2_34:
	jmp	LBB2_43
LBB2_35:
Ltmp42:
	movl	%edx, %ecx
	movq	%rax, -384(%rbp)
	movl	%ecx, -388(%rbp)
	jmp	LBB2_38
LBB2_36:
Ltmp37:
	movl	%edx, %ecx
	movq	%rax, -384(%rbp)
	movl	%ecx, -388(%rbp)
Ltmp38:
	leaq	-416(%rbp), %rdi
	callq	__ZNSt3__112basic_stringIcNS_11char_traitsIcEENS_9allocatorIcEEED1Ev
Ltmp39:
	jmp	LBB2_37
LBB2_37:
	jmp	LBB2_38
LBB2_38:
Ltmp43:
	leaq	-440(%rbp), %rdi
	callq	__ZNSt3__112basic_stringIcNS_11char_traitsIcEENS_9allocatorIcEEED1Ev
Ltmp44:
	jmp	LBB2_39
LBB2_39:
	jmp	LBB2_43
LBB2_40:
Ltmp53:
	movl	%edx, %ecx
	movq	%rax, -384(%rbp)
	movl	%ecx, -388(%rbp)
Ltmp54:
	leaq	-464(%rbp), %rdi
	callq	__ZNSt3__112basic_stringIcNS_11char_traitsIcEENS_9allocatorIcEEED1Ev
Ltmp55:
	jmp	LBB2_41
LBB2_41:
	jmp	LBB2_43
LBB2_42:
	leaq	-344(%rbp), %rdi
	callq	__ZNSt3__112basic_stringIcNS_11char_traitsIcEENS_9allocatorIcEEED1Ev
	addq	$608, %rsp              ## imm = 0x260
	popq	%rbp
	retq
LBB2_43:
Ltmp59:
	leaq	-344(%rbp), %rdi
	callq	__ZNSt3__112basic_stringIcNS_11char_traitsIcEENS_9allocatorIcEEED1Ev
Ltmp60:
	jmp	LBB2_44
LBB2_44:
	jmp	LBB2_45
LBB2_45:
	movq	-384(%rbp), %rdi
	callq	__Unwind_Resume
LBB2_46:
Ltmp61:
	movl	%edx, %ecx
	movq	%rax, %rdi
	movl	%ecx, -604(%rbp)        ## 4-byte Spill
	callq	___clang_call_terminate
Lfunc_end0:
	.cfi_endproc
	.section	__TEXT,__gcc_except_tab
	.align	2
GCC_except_table2:
Lexception0:
	.byte	255                     ## @LPStart Encoding = omit
	.byte	155                     ## @TType Encoding = indirect pcrel sdata4
	.asciz	"\352\201\200"          ## @TType base offset
	.byte	3                       ## Call site Encoding = udata4
	.ascii	"\335\001"              ## Call site table length
Lset0 = Lfunc_begin0-Lfunc_begin0       ## >> Call Site 1 <<
	.long	Lset0
Lset1 = Ltmp6-Lfunc_begin0              ##   Call between Lfunc_begin0 and Ltmp6
	.long	Lset1
	.long	0                       ##     has no landing pad
	.byte	0                       ##   On action: cleanup
Lset2 = Ltmp6-Lfunc_begin0              ## >> Call Site 2 <<
	.long	Lset2
Lset3 = Ltmp9-Ltmp6                     ##   Call between Ltmp6 and Ltmp9
	.long	Lset3
Lset4 = Ltmp58-Lfunc_begin0             ##     jumps to Ltmp58
	.long	Lset4
	.byte	0                       ##   On action: cleanup
Lset5 = Ltmp10-Lfunc_begin0             ## >> Call Site 3 <<
	.long	Lset5
Lset6 = Ltmp11-Ltmp10                   ##   Call between Ltmp10 and Ltmp11
	.long	Lset6
Lset7 = Ltmp12-Lfunc_begin0             ##     jumps to Ltmp12
	.long	Lset7
	.byte	0                       ##   On action: cleanup
Lset8 = Ltmp15-Lfunc_begin0             ## >> Call Site 4 <<
	.long	Lset8
Lset9 = Ltmp18-Ltmp15                   ##   Call between Ltmp15 and Ltmp18
	.long	Lset9
Lset10 = Ltmp58-Lfunc_begin0            ##     jumps to Ltmp58
	.long	Lset10
	.byte	0                       ##   On action: cleanup
Lset11 = Ltmp19-Lfunc_begin0            ## >> Call Site 5 <<
	.long	Lset11
Lset12 = Ltmp22-Ltmp19                  ##   Call between Ltmp19 and Ltmp22
	.long	Lset12
Lset13 = Ltmp23-Lfunc_begin0            ##     jumps to Ltmp23
	.long	Lset13
	.byte	0                       ##   On action: cleanup
Lset14 = Ltmp24-Lfunc_begin0            ## >> Call Site 6 <<
	.long	Lset14
Lset15 = Ltmp25-Ltmp24                  ##   Call between Ltmp24 and Ltmp25
	.long	Lset15
Lset16 = Ltmp26-Lfunc_begin0            ##     jumps to Ltmp26
	.long	Lset16
	.byte	3                       ##   On action: 2
Lset17 = Ltmp27-Lfunc_begin0            ## >> Call Site 7 <<
	.long	Lset17
Lset18 = Ltmp32-Ltmp27                  ##   Call between Ltmp27 and Ltmp32
	.long	Lset18
Lset19 = Ltmp58-Lfunc_begin0            ##     jumps to Ltmp58
	.long	Lset19
	.byte	0                       ##   On action: cleanup
Lset20 = Ltmp33-Lfunc_begin0            ## >> Call Site 8 <<
	.long	Lset20
Lset21 = Ltmp34-Ltmp33                  ##   Call between Ltmp33 and Ltmp34
	.long	Lset21
Lset22 = Ltmp42-Lfunc_begin0            ##     jumps to Ltmp42
	.long	Lset22
	.byte	0                       ##   On action: cleanup
Lset23 = Ltmp35-Lfunc_begin0            ## >> Call Site 9 <<
	.long	Lset23
Lset24 = Ltmp36-Ltmp35                  ##   Call between Ltmp35 and Ltmp36
	.long	Lset24
Lset25 = Ltmp37-Lfunc_begin0            ##     jumps to Ltmp37
	.long	Lset25
	.byte	0                       ##   On action: cleanup
Lset26 = Ltmp40-Lfunc_begin0            ## >> Call Site 10 <<
	.long	Lset26
Lset27 = Ltmp41-Ltmp40                  ##   Call between Ltmp40 and Ltmp41
	.long	Lset27
Lset28 = Ltmp42-Lfunc_begin0            ##     jumps to Ltmp42
	.long	Lset28
	.byte	0                       ##   On action: cleanup
Lset29 = Ltmp45-Lfunc_begin0            ## >> Call Site 11 <<
	.long	Lset29
Lset30 = Ltmp50-Ltmp45                  ##   Call between Ltmp45 and Ltmp50
	.long	Lset30
Lset31 = Ltmp58-Lfunc_begin0            ##     jumps to Ltmp58
	.long	Lset31
	.byte	0                       ##   On action: cleanup
Lset32 = Ltmp51-Lfunc_begin0            ## >> Call Site 12 <<
	.long	Lset32
Lset33 = Ltmp52-Ltmp51                  ##   Call between Ltmp51 and Ltmp52
	.long	Lset33
Lset34 = Ltmp53-Lfunc_begin0            ##     jumps to Ltmp53
	.long	Lset34
	.byte	0                       ##   On action: cleanup
Lset35 = Ltmp56-Lfunc_begin0            ## >> Call Site 13 <<
	.long	Lset35
Lset36 = Ltmp57-Ltmp56                  ##   Call between Ltmp56 and Ltmp57
	.long	Lset36
Lset37 = Ltmp58-Lfunc_begin0            ##     jumps to Ltmp58
	.long	Lset37
	.byte	0                       ##   On action: cleanup
Lset38 = Ltmp13-Lfunc_begin0            ## >> Call Site 14 <<
	.long	Lset38
Lset39 = Ltmp55-Ltmp13                  ##   Call between Ltmp13 and Ltmp55
	.long	Lset39
Lset40 = Ltmp61-Lfunc_begin0            ##     jumps to Ltmp61
	.long	Lset40
	.byte	5                       ##   On action: 3
Lset41 = Ltmp55-Lfunc_begin0            ## >> Call Site 15 <<
	.long	Lset41
Lset42 = Ltmp59-Ltmp55                  ##   Call between Ltmp55 and Ltmp59
	.long	Lset42
	.long	0                       ##     has no landing pad
	.byte	0                       ##   On action: cleanup
Lset43 = Ltmp59-Lfunc_begin0            ## >> Call Site 16 <<
	.long	Lset43
Lset44 = Ltmp60-Ltmp59                  ##   Call between Ltmp59 and Ltmp60
	.long	Lset44
Lset45 = Ltmp61-Lfunc_begin0            ##     jumps to Ltmp61
	.long	Lset45
	.byte	5                       ##   On action: 3
Lset46 = Ltmp60-Lfunc_begin0            ## >> Call Site 17 <<
	.long	Lset46
Lset47 = Lfunc_end0-Ltmp60              ##   Call between Ltmp60 and Lfunc_end0
	.long	Lset47
	.long	0                       ##     has no landing pad
	.byte	0                       ##   On action: cleanup
	.byte	0                       ## >> Action Record 1 <<
                                        ##   Cleanup
	.byte	0                       ##   No further actions
	.byte	1                       ## >> Action Record 2 <<
                                        ##   Catch TypeInfo 1
	.byte	125                     ##   Continue to action 1
	.byte	1                       ## >> Action Record 3 <<
                                        ##   Catch TypeInfo 1
	.byte	0                       ##   No further actions
                                        ## >> Catch TypeInfos <<
	.long	0                       ## TypeInfo 1
	.align	2

	.section	__TEXT,__text,regular,pure_instructions
	.align	4, 0x90
__ZL5printNSt3__112basic_stringIcNS_11char_traitsIcEENS_9allocatorIcEEEE: ## @_ZL5printNSt3__112basic_stringIcNS_11char_traitsIcEENS_9allocatorIcEEEE
	.cfi_startproc
## BB#0:
	pushq	%rbp
Ltmp65:
	.cfi_def_cfa_offset 16
Ltmp66:
	.cfi_offset %rbp, -16
	movq	%rsp, %rbp
Ltmp67:
	.cfi_def_cfa_register %rbp
	subq	$16, %rsp
	movq	__ZNSt3__14coutE@GOTPCREL(%rip), %rax
	movq	%rdi, -8(%rbp)          ## 8-byte Spill
	movq	%rax, %rdi
	movq	-8(%rbp), %rsi          ## 8-byte Reload
	callq	__ZNSt3__1lsIcNS_11char_traitsIcEENS_9allocatorIcEEEERNS_13basic_ostreamIT_T0_EES9_RKNS_12basic_stringIS6_S7_T1_EE
	movq	%rax, -16(%rbp)         ## 8-byte Spill
	addq	$16, %rsp
	popq	%rbp
	retq
	.cfi_endproc

	.private_extern	___clang_call_terminate
	.globl	___clang_call_terminate
	.weak_def_can_be_hidden	___clang_call_terminate
	.align	4, 0x90
___clang_call_terminate:                ## @__clang_call_terminate
## BB#0:
	pushq	%rax
	callq	___cxa_begin_catch
	movq	%rax, (%rsp)            ## 8-byte Spill
	callq	__ZSt9terminatev

	.align	4, 0x90
__ZL6stdOutNSt3__112basic_stringIcNS_11char_traitsIcEENS_9allocatorIcEEEE: ## @_ZL6stdOutNSt3__112basic_stringIcNS_11char_traitsIcEENS_9allocatorIcEEEE
	.cfi_startproc
## BB#0:
	pushq	%rbp
Ltmp68:
	.cfi_def_cfa_offset 16
Ltmp69:
	.cfi_offset %rbp, -16
	movq	%rsp, %rbp
Ltmp70:
	.cfi_def_cfa_register %rbp
	subq	$32, %rsp
	movq	__ZNSt3__14coutE@GOTPCREL(%rip), %rax
	movq	%rdi, -24(%rbp)         ## 8-byte Spill
	movq	%rax, %rdi
	movq	-24(%rbp), %rsi         ## 8-byte Reload
	callq	__ZNSt3__1lsIcNS_11char_traitsIcEENS_9allocatorIcEEEERNS_13basic_ostreamIT_T0_EES9_RKNS_12basic_stringIS6_S7_T1_EE
	leaq	__ZNSt3__14endlIcNS_11char_traitsIcEEEERNS_13basic_ostreamIT_T0_EES7_(%rip), %rsi
	movq	%rax, -8(%rbp)
	movq	%rsi, -16(%rbp)
	movq	-8(%rbp), %rdi
	callq	*-16(%rbp)
	movq	%rax, -32(%rbp)         ## 8-byte Spill
	addq	$32, %rsp
	popq	%rbp
	retq
	.cfi_endproc

	.globl	__ZN15YASSInterpreter9InterpretENSt3__112basic_stringIcNS0_11char_traitsIcEENS0_9allocatorIcEEEE
	.weak_def_can_be_hidden	__ZN15YASSInterpreter9InterpretENSt3__112basic_stringIcNS0_11char_traitsIcEENS0_9allocatorIcEEEE
	.align	4, 0x90
__ZN15YASSInterpreter9InterpretENSt3__112basic_stringIcNS0_11char_traitsIcEENS0_9allocatorIcEEEE: ## @_ZN15YASSInterpreter9InterpretENSt3__112basic_stringIcNS0_11char_traitsIcEENS0_9allocatorIcEEEE
Lfunc_begin1:
	.cfi_startproc
	.cfi_personality 155, ___gxx_personality_v0
	.cfi_lsda 16, Lexception1
## BB#0:
	pushq	%rbp
Ltmp77:
	.cfi_def_cfa_offset 16
Ltmp78:
	.cfi_offset %rbp, -16
	movq	%rsp, %rbp
Ltmp79:
	.cfi_def_cfa_register %rbp
	subq	$96, %rsp
	movq	%rdi, %rax
	movq	%rsi, -8(%rbp)
	movb	$0, -17(%rbp)
	leaq	-48(%rbp), %rsi
	movq	%rdi, -72(%rbp)         ## 8-byte Spill
	movq	%rsi, %rdi
	movq	%rsi, -80(%rbp)         ## 8-byte Spill
	movq	%rdx, %rsi
	movq	%rax, -88(%rbp)         ## 8-byte Spill
	callq	__ZNSt3__112basic_stringIcNS_11char_traitsIcEENS_9allocatorIcEEEC1ERKS5_
Ltmp71:
	leaq	-16(%rbp), %rsi
	movq	-72(%rbp), %rdi         ## 8-byte Reload
	movq	-80(%rbp), %rdx         ## 8-byte Reload
	callq	__ZN12YASSCompiler7CompileENSt3__112basic_stringIcNS0_11char_traitsIcEENS0_9allocatorIcEEEE
Ltmp72:
	jmp	LBB6_1
LBB6_1:
	leaq	-48(%rbp), %rdi
	callq	__ZNSt3__112basic_stringIcNS_11char_traitsIcEENS_9allocatorIcEEED1Ev
	movb	$1, -17(%rbp)
	testb	$1, -17(%rbp)
	jne	LBB6_5
	jmp	LBB6_4
LBB6_2:
Ltmp73:
	movl	%edx, %ecx
	movq	%rax, -56(%rbp)
	movl	%ecx, -60(%rbp)
Ltmp74:
	leaq	-48(%rbp), %rdi
	callq	__ZNSt3__112basic_stringIcNS_11char_traitsIcEENS_9allocatorIcEEED1Ev
Ltmp75:
	jmp	LBB6_3
LBB6_3:
	jmp	LBB6_6
LBB6_4:
	movq	-72(%rbp), %rdi         ## 8-byte Reload
	callq	__ZNSt3__112basic_stringIcNS_11char_traitsIcEENS_9allocatorIcEEED1Ev
LBB6_5:
	movq	-88(%rbp), %rax         ## 8-byte Reload
	addq	$96, %rsp
	popq	%rbp
	retq
LBB6_6:
	movq	-56(%rbp), %rdi
	callq	__Unwind_Resume
LBB6_7:
Ltmp76:
	movl	%edx, %ecx
	movq	%rax, %rdi
	movl	%ecx, -92(%rbp)         ## 4-byte Spill
	callq	___clang_call_terminate
Lfunc_end1:
	.cfi_endproc
	.section	__TEXT,__gcc_except_tab
	.align	2
GCC_except_table6:
Lexception1:
	.byte	255                     ## @LPStart Encoding = omit
	.byte	155                     ## @TType Encoding = indirect pcrel sdata4
	.byte	73                      ## @TType base offset
	.byte	3                       ## Call site Encoding = udata4
	.byte	65                      ## Call site table length
Lset48 = Lfunc_begin1-Lfunc_begin1      ## >> Call Site 1 <<
	.long	Lset48
Lset49 = Ltmp71-Lfunc_begin1            ##   Call between Lfunc_begin1 and Ltmp71
	.long	Lset49
	.long	0                       ##     has no landing pad
	.byte	0                       ##   On action: cleanup
Lset50 = Ltmp71-Lfunc_begin1            ## >> Call Site 2 <<
	.long	Lset50
Lset51 = Ltmp72-Ltmp71                  ##   Call between Ltmp71 and Ltmp72
	.long	Lset51
Lset52 = Ltmp73-Lfunc_begin1            ##     jumps to Ltmp73
	.long	Lset52
	.byte	0                       ##   On action: cleanup
Lset53 = Ltmp72-Lfunc_begin1            ## >> Call Site 3 <<
	.long	Lset53
Lset54 = Ltmp74-Ltmp72                  ##   Call between Ltmp72 and Ltmp74
	.long	Lset54
	.long	0                       ##     has no landing pad
	.byte	0                       ##   On action: cleanup
Lset55 = Ltmp74-Lfunc_begin1            ## >> Call Site 4 <<
	.long	Lset55
Lset56 = Ltmp75-Ltmp74                  ##   Call between Ltmp74 and Ltmp75
	.long	Lset56
Lset57 = Ltmp76-Lfunc_begin1            ##     jumps to Ltmp76
	.long	Lset57
	.byte	1                       ##   On action: 1
Lset58 = Ltmp75-Lfunc_begin1            ## >> Call Site 5 <<
	.long	Lset58
Lset59 = Lfunc_end1-Ltmp75              ##   Call between Ltmp75 and Lfunc_end1
	.long	Lset59
	.long	0                       ##     has no landing pad
	.byte	0                       ##   On action: cleanup
	.byte	1                       ## >> Action Record 1 <<
                                        ##   Catch TypeInfo 1
	.byte	0                       ##   No further actions
                                        ## >> Catch TypeInfos <<
	.long	0                       ## TypeInfo 1
	.align	2

	.section	__TEXT,__text,regular,pure_instructions
	.globl	__Z10ProcessZACPc
	.align	4, 0x90
__Z10ProcessZACPc:                      ## @_Z10ProcessZACPc
	.cfi_startproc
## BB#0:
	pushq	%rbp
Ltmp80:
	.cfi_def_cfa_offset 16
Ltmp81:
	.cfi_offset %rbp, -16
	movq	%rsp, %rbp
Ltmp82:
	.cfi_def_cfa_register %rbp
	subq	$16, %rsp
	movq	%rdi, -8(%rbp)
	movq	-8(%rbp), %rdi
	leaq	L_.str.1(%rip), %rsi
	callq	_strcmp
	cmpl	$0, %eax
	jne	LBB7_2
## BB#1:
	callq	__Z9InputModev
LBB7_2:
	xorl	%eax, %eax
	addq	$16, %rsp
	popq	%rbp
	retq
	.cfi_endproc

	.globl	__Z17GetCurrentVersionv
	.align	4, 0x90
__Z17GetCurrentVersionv:                ## @_Z17GetCurrentVersionv
	.cfi_startproc
## BB#0:
	pushq	%rbp
Ltmp83:
	.cfi_def_cfa_offset 16
Ltmp84:
	.cfi_offset %rbp, -16
	movq	%rsp, %rbp
Ltmp85:
	.cfi_def_cfa_register %rbp
	subq	$96, %rsp
	movq	%rdi, %rax
	xorl	%esi, %esi
	movl	$24, %ecx
	movl	%ecx, %edx
	leaq	L_.str.2(%rip), %r8
	movq	%rdi, -56(%rbp)
	movq	%r8, -64(%rbp)
	movq	-56(%rbp), %rdi
	movq	-64(%rbp), %r8
	movq	%rdi, -40(%rbp)
	movq	%r8, -48(%rbp)
	movq	-40(%rbp), %rdi
	movq	%rdi, -32(%rbp)
	movq	-32(%rbp), %r8
	movq	%r8, -24(%rbp)
	movq	-24(%rbp), %r8
	movq	%r8, -16(%rbp)
	movq	-16(%rbp), %r8
	movq	%r8, %r9
	movq	%r9, -8(%rbp)
	movq	%rdi, -72(%rbp)         ## 8-byte Spill
	movq	%r8, %rdi
	movq	%rax, -80(%rbp)         ## 8-byte Spill
	callq	_memset
	movq	-48(%rbp), %rsi
	movq	-48(%rbp), %rdi
	movq	%rsi, -88(%rbp)         ## 8-byte Spill
	callq	__ZNSt3__111char_traitsIcE6lengthEPKc
	movq	-72(%rbp), %rdi         ## 8-byte Reload
	movq	-88(%rbp), %rsi         ## 8-byte Reload
	movq	%rax, %rdx
	callq	__ZNSt3__112basic_stringIcNS_11char_traitsIcEENS_9allocatorIcEEE6__initEPKcm
	movq	-80(%rbp), %rax         ## 8-byte Reload
	addq	$96, %rsp
	popq	%rbp
	retq
	.cfi_endproc

	.globl	__Z21GetCurrentVersionDatev
	.align	4, 0x90
__Z21GetCurrentVersionDatev:            ## @_Z21GetCurrentVersionDatev
	.cfi_startproc
## BB#0:
	pushq	%rbp
Ltmp86:
	.cfi_def_cfa_offset 16
Ltmp87:
	.cfi_offset %rbp, -16
	movq	%rsp, %rbp
Ltmp88:
	.cfi_def_cfa_register %rbp
	subq	$96, %rsp
	movq	%rdi, %rax
	xorl	%esi, %esi
	movl	$24, %ecx
	movl	%ecx, %edx
	leaq	L_.str.3(%rip), %r8
	movq	%rdi, -56(%rbp)
	movq	%r8, -64(%rbp)
	movq	-56(%rbp), %rdi
	movq	-64(%rbp), %r8
	movq	%rdi, -40(%rbp)
	movq	%r8, -48(%rbp)
	movq	-40(%rbp), %rdi
	movq	%rdi, -32(%rbp)
	movq	-32(%rbp), %r8
	movq	%r8, -24(%rbp)
	movq	-24(%rbp), %r8
	movq	%r8, -16(%rbp)
	movq	-16(%rbp), %r8
	movq	%r8, %r9
	movq	%r9, -8(%rbp)
	movq	%rdi, -72(%rbp)         ## 8-byte Spill
	movq	%r8, %rdi
	movq	%rax, -80(%rbp)         ## 8-byte Spill
	callq	_memset
	movq	-48(%rbp), %rsi
	movq	-48(%rbp), %rdi
	movq	%rsi, -88(%rbp)         ## 8-byte Spill
	callq	__ZNSt3__111char_traitsIcE6lengthEPKc
	movq	-72(%rbp), %rdi         ## 8-byte Reload
	movq	-88(%rbp), %rsi         ## 8-byte Reload
	movq	%rax, %rdx
	callq	__ZNSt3__112basic_stringIcNS_11char_traitsIcEENS_9allocatorIcEEE6__initEPKcm
	movq	-80(%rbp), %rax         ## 8-byte Reload
	addq	$96, %rsp
	popq	%rbp
	retq
	.cfi_endproc

	.globl	_main
	.align	4, 0x90
_main:                                  ## @main
Lfunc_begin2:
	.cfi_startproc
	.cfi_personality 155, ___gxx_personality_v0
	.cfi_lsda 16, Lexception2
## BB#0:
	pushq	%rbp
Ltmp215:
	.cfi_def_cfa_offset 16
Ltmp216:
	.cfi_offset %rbp, -16
	movq	%rsp, %rbp
Ltmp217:
	.cfi_def_cfa_register %rbp
	subq	$1680, %rsp             ## imm = 0x690
	movl	$0, -772(%rbp)
	movl	%edi, -776(%rbp)
	movq	%rsi, -784(%rbp)
	leaq	-808(%rbp), %rsi
	movq	%rsi, -760(%rbp)
	leaq	L_.str.4(%rip), %rax
	movq	%rax, -768(%rbp)
	movq	-760(%rbp), %rcx
	movq	%rcx, -744(%rbp)
	movq	%rax, -752(%rbp)
	movq	-744(%rbp), %rax
	movq	%rax, -736(%rbp)
	movq	%rax, -728(%rbp)
	movq	%rax, -720(%rbp)
	movq	%rax, -712(%rbp)
	movq	$0, 16(%rax)
	movq	$0, 8(%rax)
	movq	$0, (%rax)
	movq	-752(%rbp), %rcx
	movq	%rcx, %rdi
	movq	%rsi, -1328(%rbp)       ## 8-byte Spill
	movq	%rax, -1336(%rbp)       ## 8-byte Spill
	movq	%rcx, -1344(%rbp)       ## 8-byte Spill
	callq	__ZNSt3__111char_traitsIcE6lengthEPKc
	movq	-1336(%rbp), %rdi       ## 8-byte Reload
	movq	-1344(%rbp), %rsi       ## 8-byte Reload
	movq	%rax, %rdx
	callq	__ZNSt3__112basic_stringIcNS_11char_traitsIcEENS_9allocatorIcEEE6__initEPKcm
Ltmp89:
	movq	-1328(%rbp), %rdi       ## 8-byte Reload
	callq	__ZL6stdOutNSt3__112basic_stringIcNS_11char_traitsIcEENS_9allocatorIcEEEE
Ltmp90:
	jmp	LBB10_1
LBB10_1:
	leaq	-808(%rbp), %rdi
	callq	__ZNSt3__112basic_stringIcNS_11char_traitsIcEENS_9allocatorIcEEED1Ev
	leaq	-848(%rbp), %rdi
	movq	%rdi, -696(%rbp)
	leaq	L_.str.4(%rip), %rax
	movq	%rax, -704(%rbp)
	movq	-696(%rbp), %rcx
	movq	%rcx, -680(%rbp)
	movq	%rax, -688(%rbp)
	movq	-680(%rbp), %rax
	movq	%rax, -672(%rbp)
	movq	%rax, -664(%rbp)
	movq	%rax, -656(%rbp)
	movq	%rax, -648(%rbp)
	movq	$0, 16(%rax)
	movq	$0, 8(%rax)
	movq	$0, (%rax)
	movq	-688(%rbp), %rcx
	movq	%rdi, -1352(%rbp)       ## 8-byte Spill
	movq	%rcx, %rdi
	movq	%rcx, -1360(%rbp)       ## 8-byte Spill
	movq	%rax, -1368(%rbp)       ## 8-byte Spill
	callq	__ZNSt3__111char_traitsIcE6lengthEPKc
	movq	-1368(%rbp), %rdi       ## 8-byte Reload
	movq	-1360(%rbp), %rsi       ## 8-byte Reload
	movq	%rax, %rdx
	callq	__ZNSt3__112basic_stringIcNS_11char_traitsIcEENS_9allocatorIcEEE6__initEPKcm
Ltmp94:
	movq	-1352(%rbp), %rdi       ## 8-byte Reload
	callq	__ZL6stdOutNSt3__112basic_stringIcNS_11char_traitsIcEENS_9allocatorIcEEEE
Ltmp95:
	jmp	LBB10_2
LBB10_2:
	leaq	-848(%rbp), %rdi
	callq	__ZNSt3__112basic_stringIcNS_11char_traitsIcEENS_9allocatorIcEEED1Ev
	leaq	-968(%rbp), %rdi
	movq	%rdi, -1376(%rbp)       ## 8-byte Spill
	callq	__Z17GetCurrentVersionv
Ltmp99:
	leaq	L_.str.5(%rip), %rsi
	leaq	-944(%rbp), %rdi
	movq	-1376(%rbp), %rdx       ## 8-byte Reload
	callq	__ZNSt3__1plIcNS_11char_traitsIcEENS_9allocatorIcEEEENS_12basic_stringIT_T0_T1_EEPKS6_RKS9_
Ltmp100:
	jmp	LBB10_3
LBB10_3:
Ltmp101:
	leaq	L_.str.6(%rip), %rdx
	leaq	-920(%rbp), %rdi
	leaq	-944(%rbp), %rsi
	callq	__ZNSt3__1plIcNS_11char_traitsIcEENS_9allocatorIcEEEENS_12basic_stringIT_T0_T1_EERKS9_PKS6_
Ltmp102:
	jmp	LBB10_4
LBB10_4:
Ltmp103:
	leaq	-992(%rbp), %rdi
	callq	__Z21GetCurrentVersionDatev
Ltmp104:
	jmp	LBB10_5
LBB10_5:
Ltmp105:
	leaq	-896(%rbp), %rdi
	leaq	-920(%rbp), %rsi
	leaq	-992(%rbp), %rdx
	callq	__ZNSt3__1plIcNS_11char_traitsIcEENS_9allocatorIcEEEENS_12basic_stringIT_T0_T1_EERKS9_SB_
Ltmp106:
	jmp	LBB10_6
LBB10_6:
Ltmp107:
	leaq	L_.str.7(%rip), %rdx
	leaq	-872(%rbp), %rdi
	leaq	-896(%rbp), %rsi
	callq	__ZNSt3__1plIcNS_11char_traitsIcEENS_9allocatorIcEEEENS_12basic_stringIT_T0_T1_EERKS9_PKS6_
Ltmp108:
	jmp	LBB10_7
LBB10_7:
Ltmp109:
	leaq	-872(%rbp), %rdi
	callq	__ZL6stdOutNSt3__112basic_stringIcNS_11char_traitsIcEENS_9allocatorIcEEEE
Ltmp110:
	jmp	LBB10_8
LBB10_8:
Ltmp114:
	leaq	-872(%rbp), %rdi
	callq	__ZNSt3__112basic_stringIcNS_11char_traitsIcEENS_9allocatorIcEEED1Ev
Ltmp115:
	jmp	LBB10_9
LBB10_9:
Ltmp119:
	leaq	-896(%rbp), %rdi
	callq	__ZNSt3__112basic_stringIcNS_11char_traitsIcEENS_9allocatorIcEEED1Ev
Ltmp120:
	jmp	LBB10_10
LBB10_10:
Ltmp124:
	leaq	-992(%rbp), %rdi
	callq	__ZNSt3__112basic_stringIcNS_11char_traitsIcEENS_9allocatorIcEEED1Ev
Ltmp125:
	jmp	LBB10_11
LBB10_11:
Ltmp129:
	leaq	-920(%rbp), %rdi
	callq	__ZNSt3__112basic_stringIcNS_11char_traitsIcEENS_9allocatorIcEEED1Ev
Ltmp130:
	jmp	LBB10_12
LBB10_12:
Ltmp134:
	leaq	-944(%rbp), %rdi
	callq	__ZNSt3__112basic_stringIcNS_11char_traitsIcEENS_9allocatorIcEEED1Ev
Ltmp135:
	jmp	LBB10_13
LBB10_13:
	leaq	-968(%rbp), %rdi
	callq	__ZNSt3__112basic_stringIcNS_11char_traitsIcEENS_9allocatorIcEEED1Ev
	leaq	-1064(%rbp), %rdi
	movq	%rdi, -1384(%rbp)       ## 8-byte Spill
	callq	__ZN9ZPEParser10GetVersionEv
Ltmp139:
	leaq	L_.str.8(%rip), %rsi
	leaq	-1040(%rbp), %rdi
	movq	-1384(%rbp), %rdx       ## 8-byte Reload
	callq	__ZNSt3__1plIcNS_11char_traitsIcEENS_9allocatorIcEEEENS_12basic_stringIT_T0_T1_EEPKS6_RKS9_
Ltmp140:
	jmp	LBB10_14
LBB10_14:
Ltmp141:
	leaq	L_.str.9(%rip), %rdx
	leaq	-1016(%rbp), %rdi
	leaq	-1040(%rbp), %rsi
	callq	__ZNSt3__1plIcNS_11char_traitsIcEENS_9allocatorIcEEEENS_12basic_stringIT_T0_T1_EERKS9_PKS6_
Ltmp142:
	jmp	LBB10_15
LBB10_15:
Ltmp143:
	leaq	-1016(%rbp), %rdi
	callq	__ZL6stdOutNSt3__112basic_stringIcNS_11char_traitsIcEENS_9allocatorIcEEEE
Ltmp144:
	jmp	LBB10_16
LBB10_16:
Ltmp148:
	leaq	-1016(%rbp), %rdi
	callq	__ZNSt3__112basic_stringIcNS_11char_traitsIcEENS_9allocatorIcEEED1Ev
Ltmp149:
	jmp	LBB10_17
LBB10_17:
Ltmp153:
	leaq	-1040(%rbp), %rdi
	callq	__ZNSt3__112basic_stringIcNS_11char_traitsIcEENS_9allocatorIcEEED1Ev
Ltmp154:
	jmp	LBB10_18
LBB10_18:
	leaq	-1064(%rbp), %rdi
	callq	__ZNSt3__112basic_stringIcNS_11char_traitsIcEENS_9allocatorIcEEED1Ev
	leaq	-1088(%rbp), %rdi
	movq	%rdi, -632(%rbp)
	leaq	L_.str.10(%rip), %rax
	movq	%rax, -640(%rbp)
	movq	-632(%rbp), %rcx
	movq	%rcx, -616(%rbp)
	movq	%rax, -624(%rbp)
	movq	-616(%rbp), %rax
	movq	%rax, -608(%rbp)
	movq	%rax, -600(%rbp)
	movq	%rax, -592(%rbp)
	movq	%rax, -584(%rbp)
	movq	$0, 16(%rax)
	movq	$0, 8(%rax)
	movq	$0, (%rax)
	movq	-624(%rbp), %rcx
	movq	%rdi, -1392(%rbp)       ## 8-byte Spill
	movq	%rcx, %rdi
	movq	%rcx, -1400(%rbp)       ## 8-byte Spill
	movq	%rax, -1408(%rbp)       ## 8-byte Spill
	callq	__ZNSt3__111char_traitsIcE6lengthEPKc
	movq	-1408(%rbp), %rdi       ## 8-byte Reload
	movq	-1400(%rbp), %rsi       ## 8-byte Reload
	movq	%rax, %rdx
	callq	__ZNSt3__112basic_stringIcNS_11char_traitsIcEENS_9allocatorIcEEE6__initEPKcm
Ltmp158:
	movq	-1392(%rbp), %rdi       ## 8-byte Reload
	callq	__ZL6stdOutNSt3__112basic_stringIcNS_11char_traitsIcEENS_9allocatorIcEEEE
Ltmp159:
	jmp	LBB10_19
LBB10_19:
	leaq	-1088(%rbp), %rdi
	callq	__ZNSt3__112basic_stringIcNS_11char_traitsIcEENS_9allocatorIcEEED1Ev
	leaq	-1112(%rbp), %rdi
	movq	%rdi, -568(%rbp)
	leaq	L_.str.11(%rip), %rax
	movq	%rax, -576(%rbp)
	movq	-568(%rbp), %rcx
	movq	%rcx, -552(%rbp)
	movq	%rax, -560(%rbp)
	movq	-552(%rbp), %rax
	movq	%rax, -544(%rbp)
	movq	%rax, -536(%rbp)
	movq	%rax, -528(%rbp)
	movq	%rax, -520(%rbp)
	movq	$0, 16(%rax)
	movq	$0, 8(%rax)
	movq	$0, (%rax)
	movq	-560(%rbp), %rcx
	movq	%rdi, -1416(%rbp)       ## 8-byte Spill
	movq	%rcx, %rdi
	movq	%rcx, -1424(%rbp)       ## 8-byte Spill
	movq	%rax, -1432(%rbp)       ## 8-byte Spill
	callq	__ZNSt3__111char_traitsIcE6lengthEPKc
	movq	-1432(%rbp), %rdi       ## 8-byte Reload
	movq	-1424(%rbp), %rsi       ## 8-byte Reload
	movq	%rax, %rdx
	callq	__ZNSt3__112basic_stringIcNS_11char_traitsIcEENS_9allocatorIcEEE6__initEPKcm
Ltmp163:
	movq	-1416(%rbp), %rdi       ## 8-byte Reload
	callq	__ZL6stdOutNSt3__112basic_stringIcNS_11char_traitsIcEENS_9allocatorIcEEEE
Ltmp164:
	jmp	LBB10_20
LBB10_20:
	leaq	-1112(%rbp), %rdi
	callq	__ZNSt3__112basic_stringIcNS_11char_traitsIcEENS_9allocatorIcEEED1Ev
	leaq	-1136(%rbp), %rdi
	movq	%rdi, -504(%rbp)
	leaq	L_.str.12(%rip), %rax
	movq	%rax, -512(%rbp)
	movq	-504(%rbp), %rcx
	movq	%rcx, -488(%rbp)
	movq	%rax, -496(%rbp)
	movq	-488(%rbp), %rax
	movq	%rax, -480(%rbp)
	movq	%rax, -472(%rbp)
	movq	%rax, -464(%rbp)
	movq	%rax, -456(%rbp)
	movq	$0, 16(%rax)
	movq	$0, 8(%rax)
	movq	$0, (%rax)
	movq	-496(%rbp), %rcx
	movq	%rdi, -1440(%rbp)       ## 8-byte Spill
	movq	%rcx, %rdi
	movq	%rcx, -1448(%rbp)       ## 8-byte Spill
	movq	%rax, -1456(%rbp)       ## 8-byte Spill
	callq	__ZNSt3__111char_traitsIcE6lengthEPKc
	movq	-1456(%rbp), %rdi       ## 8-byte Reload
	movq	-1448(%rbp), %rsi       ## 8-byte Reload
	movq	%rax, %rdx
	callq	__ZNSt3__112basic_stringIcNS_11char_traitsIcEENS_9allocatorIcEEE6__initEPKcm
Ltmp168:
	movq	-1440(%rbp), %rdi       ## 8-byte Reload
	callq	__ZL6stdOutNSt3__112basic_stringIcNS_11char_traitsIcEENS_9allocatorIcEEEE
Ltmp169:
	jmp	LBB10_21
LBB10_21:
	leaq	-1136(%rbp), %rdi
	callq	__ZNSt3__112basic_stringIcNS_11char_traitsIcEENS_9allocatorIcEEED1Ev
	leaq	-1160(%rbp), %rdi
	movq	%rdi, -440(%rbp)
	leaq	L_.str.13(%rip), %rax
	movq	%rax, -448(%rbp)
	movq	-440(%rbp), %rcx
	movq	%rcx, -424(%rbp)
	movq	%rax, -432(%rbp)
	movq	-424(%rbp), %rax
	movq	%rax, -416(%rbp)
	movq	%rax, -408(%rbp)
	movq	%rax, -400(%rbp)
	movq	%rax, -392(%rbp)
	movq	$0, 16(%rax)
	movq	$0, 8(%rax)
	movq	$0, (%rax)
	movq	-432(%rbp), %rcx
	movq	%rdi, -1464(%rbp)       ## 8-byte Spill
	movq	%rcx, %rdi
	movq	%rcx, -1472(%rbp)       ## 8-byte Spill
	movq	%rax, -1480(%rbp)       ## 8-byte Spill
	callq	__ZNSt3__111char_traitsIcE6lengthEPKc
	movq	-1480(%rbp), %rdi       ## 8-byte Reload
	movq	-1472(%rbp), %rsi       ## 8-byte Reload
	movq	%rax, %rdx
	callq	__ZNSt3__112basic_stringIcNS_11char_traitsIcEENS_9allocatorIcEEE6__initEPKcm
Ltmp173:
	movq	-1464(%rbp), %rdi       ## 8-byte Reload
	callq	__ZL6stdOutNSt3__112basic_stringIcNS_11char_traitsIcEENS_9allocatorIcEEEE
Ltmp174:
	jmp	LBB10_22
LBB10_22:
	leaq	-1160(%rbp), %rdi
	callq	__ZNSt3__112basic_stringIcNS_11char_traitsIcEENS_9allocatorIcEEED1Ev
	leaq	-1184(%rbp), %rdi
	movq	%rdi, -376(%rbp)
	leaq	L_.str.4(%rip), %rax
	movq	%rax, -384(%rbp)
	movq	-376(%rbp), %rcx
	movq	%rcx, -360(%rbp)
	movq	%rax, -368(%rbp)
	movq	-360(%rbp), %rax
	movq	%rax, -352(%rbp)
	movq	%rax, -344(%rbp)
	movq	%rax, -336(%rbp)
	movq	%rax, -328(%rbp)
	movq	$0, 16(%rax)
	movq	$0, 8(%rax)
	movq	$0, (%rax)
	movq	-368(%rbp), %rcx
	movq	%rdi, -1488(%rbp)       ## 8-byte Spill
	movq	%rcx, %rdi
	movq	%rcx, -1496(%rbp)       ## 8-byte Spill
	movq	%rax, -1504(%rbp)       ## 8-byte Spill
	callq	__ZNSt3__111char_traitsIcE6lengthEPKc
	movq	-1504(%rbp), %rdi       ## 8-byte Reload
	movq	-1496(%rbp), %rsi       ## 8-byte Reload
	movq	%rax, %rdx
	callq	__ZNSt3__112basic_stringIcNS_11char_traitsIcEENS_9allocatorIcEEE6__initEPKcm
Ltmp178:
	movq	-1488(%rbp), %rdi       ## 8-byte Reload
	callq	__ZL6stdOutNSt3__112basic_stringIcNS_11char_traitsIcEENS_9allocatorIcEEEE
Ltmp179:
	jmp	LBB10_23
LBB10_23:
	leaq	-1184(%rbp), %rdi
	callq	__ZNSt3__112basic_stringIcNS_11char_traitsIcEENS_9allocatorIcEEED1Ev
	leaq	-1208(%rbp), %rdi
	movq	%rdi, -312(%rbp)
	leaq	L_.str.4(%rip), %rax
	movq	%rax, -320(%rbp)
	movq	-312(%rbp), %rcx
	movq	%rcx, -296(%rbp)
	movq	%rax, -304(%rbp)
	movq	-296(%rbp), %rax
	movq	%rax, -288(%rbp)
	movq	%rax, -280(%rbp)
	movq	%rax, -272(%rbp)
	movq	%rax, -264(%rbp)
	movq	$0, 16(%rax)
	movq	$0, 8(%rax)
	movq	$0, (%rax)
	movq	-304(%rbp), %rcx
	movq	%rdi, -1512(%rbp)       ## 8-byte Spill
	movq	%rcx, %rdi
	movq	%rcx, -1520(%rbp)       ## 8-byte Spill
	movq	%rax, -1528(%rbp)       ## 8-byte Spill
	callq	__ZNSt3__111char_traitsIcE6lengthEPKc
	movq	-1528(%rbp), %rdi       ## 8-byte Reload
	movq	-1520(%rbp), %rsi       ## 8-byte Reload
	movq	%rax, %rdx
	callq	__ZNSt3__112basic_stringIcNS_11char_traitsIcEENS_9allocatorIcEEE6__initEPKcm
Ltmp183:
	movq	-1512(%rbp), %rdi       ## 8-byte Reload
	callq	__ZL6stdOutNSt3__112basic_stringIcNS_11char_traitsIcEENS_9allocatorIcEEEE
Ltmp184:
	jmp	LBB10_24
LBB10_24:
	leaq	-1208(%rbp), %rdi
	callq	__ZNSt3__112basic_stringIcNS_11char_traitsIcEENS_9allocatorIcEEED1Ev
	movl	$48, %eax
	movl	%eax, %edi
	callq	__Znwm
	movq	%rax, %rdi
	movq	%rax, %rcx
	movq	$0, 40(%rax)
	movq	$0, 32(%rax)
	movq	$0, 24(%rax)
	movq	$0, 16(%rax)
	movq	$0, 8(%rax)
	movq	$0, (%rax)
Ltmp188:
	movq	%rdi, -1536(%rbp)       ## 8-byte Spill
	movq	%rax, %rdi
	movq	%rcx, -1544(%rbp)       ## 8-byte Spill
	callq	__ZN8ZPEValueC1Ev
Ltmp189:
	jmp	LBB10_25
LBB10_25:
	movq	-1544(%rbp), %rax       ## 8-byte Reload
	movq	%rax, -1216(%rbp)
	movl	$24, %ecx
	movl	%ecx, %edi
	callq	__Znwm
	movq	%rax, %rdi
	movq	%rax, %rdx
	movq	$0, 16(%rax)
	movq	$0, 8(%rax)
	movq	$0, (%rax)
Ltmp191:
	movq	%rdi, -1552(%rbp)       ## 8-byte Spill
	movq	%rax, %rdi
	movq	%rdx, -1560(%rbp)       ## 8-byte Spill
	callq	__ZN7ZPEListC1Ev
Ltmp192:
	jmp	LBB10_26
LBB10_26:
	movq	-1560(%rbp), %rax       ## 8-byte Reload
	movq	%rax, -1224(%rbp)
	movq	-1216(%rbp), %rdi
	movq	%rax, %rsi
	callq	__ZN8ZPEValue8setValueEPv
	movq	-1216(%rbp), %rdi
	callq	__ZN8ZPEValue7getTypeEv
	movl	%eax, %edi
	callq	__ZL6stdOuti
	movq	-1216(%rbp), %rdi
	leaq	-1248(%rbp), %rsi
	movq	%rsi, -248(%rbp)
	leaq	L_.str.14(%rip), %rcx
	movq	%rcx, -256(%rbp)
	movq	-248(%rbp), %rdx
	movq	%rdx, -232(%rbp)
	movq	%rcx, -240(%rbp)
	movq	-232(%rbp), %rcx
	movq	%rcx, -224(%rbp)
	movq	%rcx, -216(%rbp)
	movq	%rcx, -208(%rbp)
	movq	%rcx, -200(%rbp)
	movq	$0, 16(%rcx)
	movq	$0, 8(%rcx)
	movq	$0, (%rcx)
	movq	-240(%rbp), %rdx
	movq	%rdi, -1568(%rbp)       ## 8-byte Spill
	movq	%rdx, %rdi
	movq	%rdx, -1576(%rbp)       ## 8-byte Spill
	movq	%rsi, -1584(%rbp)       ## 8-byte Spill
	movq	%rcx, -1592(%rbp)       ## 8-byte Spill
	callq	__ZNSt3__111char_traitsIcE6lengthEPKc
	movq	-1592(%rbp), %rdi       ## 8-byte Reload
	movq	-1576(%rbp), %rsi       ## 8-byte Reload
	movq	%rax, %rdx
	callq	__ZNSt3__112basic_stringIcNS_11char_traitsIcEENS_9allocatorIcEEE6__initEPKcm
Ltmp194:
	movq	-1568(%rbp), %rdi       ## 8-byte Reload
	movq	-1584(%rbp), %rsi       ## 8-byte Reload
	callq	__ZN8ZPEValue8setValueENSt3__112basic_stringIcNS0_11char_traitsIcEENS0_9allocatorIcEEEE
Ltmp195:
	jmp	LBB10_27
LBB10_27:
	leaq	-1248(%rbp), %rdi
	callq	__ZNSt3__112basic_stringIcNS_11char_traitsIcEENS_9allocatorIcEEED1Ev
	movq	-1216(%rbp), %rdi
	callq	__ZN8ZPEValue7getTypeEv
	movl	%eax, %edi
	callq	__ZL6stdOuti
	movl	-776(%rbp), %eax
	movl	%eax, _arguments(%rip)
	cmpl	$1, _arguments(%rip)
	jne	LBB10_80
## BB#28:
	leaq	-1272(%rbp), %rax
	movq	%rax, -184(%rbp)
	leaq	L_.str.15(%rip), %rcx
	movq	%rcx, -192(%rbp)
	movq	-184(%rbp), %rdx
	movq	%rdx, -168(%rbp)
	movq	%rcx, -176(%rbp)
	movq	-168(%rbp), %rcx
	movq	%rcx, -160(%rbp)
	movq	%rcx, -152(%rbp)
	movq	%rcx, -144(%rbp)
	movq	%rcx, -136(%rbp)
	movq	$0, 16(%rcx)
	movq	$0, 8(%rcx)
	movq	$0, (%rcx)
	movq	-176(%rbp), %rdx
	movq	%rdx, %rdi
	movq	%rax, -1600(%rbp)       ## 8-byte Spill
	movq	%rcx, -1608(%rbp)       ## 8-byte Spill
	movq	%rdx, -1616(%rbp)       ## 8-byte Spill
	callq	__ZNSt3__111char_traitsIcE6lengthEPKc
	movq	-1608(%rbp), %rdi       ## 8-byte Reload
	movq	-1616(%rbp), %rsi       ## 8-byte Reload
	movq	%rax, %rdx
	callq	__ZNSt3__112basic_stringIcNS_11char_traitsIcEENS_9allocatorIcEEE6__initEPKcm
Ltmp204:
	movq	-1600(%rbp), %rdi       ## 8-byte Reload
	callq	__ZL6stdOutNSt3__112basic_stringIcNS_11char_traitsIcEENS_9allocatorIcEEEE
Ltmp205:
	jmp	LBB10_29
LBB10_29:
	leaq	-1272(%rbp), %rdi
	callq	__ZNSt3__112basic_stringIcNS_11char_traitsIcEENS_9allocatorIcEEED1Ev
	leaq	-1296(%rbp), %rdi
	movq	%rdi, -120(%rbp)
	leaq	L_.str.4(%rip), %rax
	movq	%rax, -128(%rbp)
	movq	-120(%rbp), %rcx
	movq	%rcx, -104(%rbp)
	movq	%rax, -112(%rbp)
	movq	-104(%rbp), %rax
	movq	%rax, -96(%rbp)
	movq	%rax, -88(%rbp)
	movq	%rax, -80(%rbp)
	movq	%rax, -72(%rbp)
	movq	$0, 16(%rax)
	movq	$0, 8(%rax)
	movq	$0, (%rax)
	movq	-112(%rbp), %rcx
	movq	%rdi, -1624(%rbp)       ## 8-byte Spill
	movq	%rcx, %rdi
	movq	%rcx, -1632(%rbp)       ## 8-byte Spill
	movq	%rax, -1640(%rbp)       ## 8-byte Spill
	callq	__ZNSt3__111char_traitsIcE6lengthEPKc
	movq	-1640(%rbp), %rdi       ## 8-byte Reload
	movq	-1632(%rbp), %rsi       ## 8-byte Reload
	movq	%rax, %rdx
	callq	__ZNSt3__112basic_stringIcNS_11char_traitsIcEENS_9allocatorIcEEE6__initEPKcm
Ltmp209:
	movq	-1624(%rbp), %rdi       ## 8-byte Reload
	callq	__ZL6stdOutNSt3__112basic_stringIcNS_11char_traitsIcEENS_9allocatorIcEEEE
Ltmp210:
	jmp	LBB10_30
LBB10_30:
	leaq	-1296(%rbp), %rdi
	callq	__ZNSt3__112basic_stringIcNS_11char_traitsIcEENS_9allocatorIcEEED1Ev
	movl	$1, -772(%rbp)
	jmp	LBB10_84
LBB10_31:
Ltmp91:
	movl	%edx, %ecx
	movq	%rax, -816(%rbp)
	movl	%ecx, -820(%rbp)
Ltmp92:
	leaq	-808(%rbp), %rdi
	callq	__ZNSt3__112basic_stringIcNS_11char_traitsIcEENS_9allocatorIcEEED1Ev
Ltmp93:
	jmp	LBB10_32
LBB10_32:
	jmp	LBB10_85
LBB10_33:
Ltmp96:
	movl	%edx, %ecx
	movq	%rax, -816(%rbp)
	movl	%ecx, -820(%rbp)
Ltmp97:
	leaq	-848(%rbp), %rdi
	callq	__ZNSt3__112basic_stringIcNS_11char_traitsIcEENS_9allocatorIcEEED1Ev
Ltmp98:
	jmp	LBB10_34
LBB10_34:
	jmp	LBB10_85
LBB10_35:
Ltmp136:
	movl	%edx, %ecx
	movq	%rax, -816(%rbp)
	movl	%ecx, -820(%rbp)
	jmp	LBB10_50
LBB10_36:
Ltmp131:
	movl	%edx, %ecx
	movq	%rax, -816(%rbp)
	movl	%ecx, -820(%rbp)
	jmp	LBB10_48
LBB10_37:
Ltmp126:
	movl	%edx, %ecx
	movq	%rax, -816(%rbp)
	movl	%ecx, -820(%rbp)
	jmp	LBB10_46
LBB10_38:
Ltmp121:
	movl	%edx, %ecx
	movq	%rax, -816(%rbp)
	movl	%ecx, -820(%rbp)
	jmp	LBB10_44
LBB10_39:
Ltmp116:
	movl	%edx, %ecx
	movq	%rax, -816(%rbp)
	movl	%ecx, -820(%rbp)
	jmp	LBB10_42
LBB10_40:
Ltmp111:
	movl	%edx, %ecx
	movq	%rax, -816(%rbp)
	movl	%ecx, -820(%rbp)
Ltmp112:
	leaq	-872(%rbp), %rdi
	callq	__ZNSt3__112basic_stringIcNS_11char_traitsIcEENS_9allocatorIcEEED1Ev
Ltmp113:
	jmp	LBB10_41
LBB10_41:
	jmp	LBB10_42
LBB10_42:
Ltmp117:
	leaq	-896(%rbp), %rdi
	callq	__ZNSt3__112basic_stringIcNS_11char_traitsIcEENS_9allocatorIcEEED1Ev
Ltmp118:
	jmp	LBB10_43
LBB10_43:
	jmp	LBB10_44
LBB10_44:
Ltmp122:
	leaq	-992(%rbp), %rdi
	callq	__ZNSt3__112basic_stringIcNS_11char_traitsIcEENS_9allocatorIcEEED1Ev
Ltmp123:
	jmp	LBB10_45
LBB10_45:
	jmp	LBB10_46
LBB10_46:
Ltmp127:
	leaq	-920(%rbp), %rdi
	callq	__ZNSt3__112basic_stringIcNS_11char_traitsIcEENS_9allocatorIcEEED1Ev
Ltmp128:
	jmp	LBB10_47
LBB10_47:
	jmp	LBB10_48
LBB10_48:
Ltmp132:
	leaq	-944(%rbp), %rdi
	callq	__ZNSt3__112basic_stringIcNS_11char_traitsIcEENS_9allocatorIcEEED1Ev
Ltmp133:
	jmp	LBB10_49
LBB10_49:
	jmp	LBB10_50
LBB10_50:
Ltmp137:
	leaq	-968(%rbp), %rdi
	callq	__ZNSt3__112basic_stringIcNS_11char_traitsIcEENS_9allocatorIcEEED1Ev
Ltmp138:
	jmp	LBB10_51
LBB10_51:
	jmp	LBB10_85
LBB10_52:
Ltmp155:
	movl	%edx, %ecx
	movq	%rax, -816(%rbp)
	movl	%ecx, -820(%rbp)
	jmp	LBB10_58
LBB10_53:
Ltmp150:
	movl	%edx, %ecx
	movq	%rax, -816(%rbp)
	movl	%ecx, -820(%rbp)
	jmp	LBB10_56
LBB10_54:
Ltmp145:
	movl	%edx, %ecx
	movq	%rax, -816(%rbp)
	movl	%ecx, -820(%rbp)
Ltmp146:
	leaq	-1016(%rbp), %rdi
	callq	__ZNSt3__112basic_stringIcNS_11char_traitsIcEENS_9allocatorIcEEED1Ev
Ltmp147:
	jmp	LBB10_55
LBB10_55:
	jmp	LBB10_56
LBB10_56:
Ltmp151:
	leaq	-1040(%rbp), %rdi
	callq	__ZNSt3__112basic_stringIcNS_11char_traitsIcEENS_9allocatorIcEEED1Ev
Ltmp152:
	jmp	LBB10_57
LBB10_57:
	jmp	LBB10_58
LBB10_58:
Ltmp156:
	leaq	-1064(%rbp), %rdi
	callq	__ZNSt3__112basic_stringIcNS_11char_traitsIcEENS_9allocatorIcEEED1Ev
Ltmp157:
	jmp	LBB10_59
LBB10_59:
	jmp	LBB10_85
LBB10_60:
Ltmp160:
	movl	%edx, %ecx
	movq	%rax, -816(%rbp)
	movl	%ecx, -820(%rbp)
Ltmp161:
	leaq	-1088(%rbp), %rdi
	callq	__ZNSt3__112basic_stringIcNS_11char_traitsIcEENS_9allocatorIcEEED1Ev
Ltmp162:
	jmp	LBB10_61
LBB10_61:
	jmp	LBB10_85
LBB10_62:
Ltmp165:
	movl	%edx, %ecx
	movq	%rax, -816(%rbp)
	movl	%ecx, -820(%rbp)
Ltmp166:
	leaq	-1112(%rbp), %rdi
	callq	__ZNSt3__112basic_stringIcNS_11char_traitsIcEENS_9allocatorIcEEED1Ev
Ltmp167:
	jmp	LBB10_63
LBB10_63:
	jmp	LBB10_85
LBB10_64:
Ltmp170:
	movl	%edx, %ecx
	movq	%rax, -816(%rbp)
	movl	%ecx, -820(%rbp)
Ltmp171:
	leaq	-1136(%rbp), %rdi
	callq	__ZNSt3__112basic_stringIcNS_11char_traitsIcEENS_9allocatorIcEEED1Ev
Ltmp172:
	jmp	LBB10_65
LBB10_65:
	jmp	LBB10_85
LBB10_66:
Ltmp175:
	movl	%edx, %ecx
	movq	%rax, -816(%rbp)
	movl	%ecx, -820(%rbp)
Ltmp176:
	leaq	-1160(%rbp), %rdi
	callq	__ZNSt3__112basic_stringIcNS_11char_traitsIcEENS_9allocatorIcEEED1Ev
Ltmp177:
	jmp	LBB10_67
LBB10_67:
	jmp	LBB10_85
LBB10_68:
Ltmp180:
	movl	%edx, %ecx
	movq	%rax, -816(%rbp)
	movl	%ecx, -820(%rbp)
Ltmp181:
	leaq	-1184(%rbp), %rdi
	callq	__ZNSt3__112basic_stringIcNS_11char_traitsIcEENS_9allocatorIcEEED1Ev
Ltmp182:
	jmp	LBB10_69
LBB10_69:
	jmp	LBB10_85
LBB10_70:
Ltmp185:
	movl	%edx, %ecx
	movq	%rax, -816(%rbp)
	movl	%ecx, -820(%rbp)
Ltmp186:
	leaq	-1208(%rbp), %rdi
	callq	__ZNSt3__112basic_stringIcNS_11char_traitsIcEENS_9allocatorIcEEED1Ev
Ltmp187:
	jmp	LBB10_71
LBB10_71:
	jmp	LBB10_85
LBB10_72:
Ltmp190:
	movl	%edx, %ecx
	movq	%rax, -816(%rbp)
	movl	%ecx, -820(%rbp)
	movq	-1536(%rbp), %rdi       ## 8-byte Reload
	callq	__ZdlPv
	jmp	LBB10_85
LBB10_73:
Ltmp193:
	movl	%edx, %ecx
	movq	%rax, -816(%rbp)
	movl	%ecx, -820(%rbp)
	movq	-1552(%rbp), %rdi       ## 8-byte Reload
	callq	__ZdlPv
	jmp	LBB10_85
LBB10_74:
Ltmp196:
	movl	%edx, %ecx
	movq	%rax, -816(%rbp)
	movl	%ecx, -820(%rbp)
Ltmp197:
	leaq	-1248(%rbp), %rdi
	callq	__ZNSt3__112basic_stringIcNS_11char_traitsIcEENS_9allocatorIcEEED1Ev
Ltmp198:
	jmp	LBB10_75
LBB10_75:
	jmp	LBB10_85
LBB10_76:
Ltmp206:
	movl	%edx, %ecx
	movq	%rax, -816(%rbp)
	movl	%ecx, -820(%rbp)
Ltmp207:
	leaq	-1272(%rbp), %rdi
	callq	__ZNSt3__112basic_stringIcNS_11char_traitsIcEENS_9allocatorIcEEED1Ev
Ltmp208:
	jmp	LBB10_77
LBB10_77:
	jmp	LBB10_85
LBB10_78:
Ltmp211:
	movl	%edx, %ecx
	movq	%rax, -816(%rbp)
	movl	%ecx, -820(%rbp)
Ltmp212:
	leaq	-1296(%rbp), %rdi
	callq	__ZNSt3__112basic_stringIcNS_11char_traitsIcEENS_9allocatorIcEEED1Ev
Ltmp213:
	jmp	LBB10_79
LBB10_79:
	jmp	LBB10_85
LBB10_80:
	movq	-784(%rbp), %rax
	movq	8(%rax), %rdi
	callq	__Z10ProcessZACPc
	leaq	-1320(%rbp), %rdi
	movq	%rdi, -56(%rbp)
	leaq	L_.str.4(%rip), %rcx
	movq	%rcx, -64(%rbp)
	movq	-56(%rbp), %rdx
	movq	%rdx, -40(%rbp)
	movq	%rcx, -48(%rbp)
	movq	-40(%rbp), %rcx
	movq	%rcx, -32(%rbp)
	movq	%rcx, -24(%rbp)
	movq	%rcx, -16(%rbp)
	movq	%rcx, -8(%rbp)
	movq	$0, 16(%rcx)
	movq	$0, 8(%rcx)
	movq	$0, (%rcx)
	movq	-48(%rbp), %rdx
	movq	%rdi, -1648(%rbp)       ## 8-byte Spill
	movq	%rdx, %rdi
	movl	%eax, -1652(%rbp)       ## 4-byte Spill
	movq	%rdx, -1664(%rbp)       ## 8-byte Spill
	movq	%rcx, -1672(%rbp)       ## 8-byte Spill
	callq	__ZNSt3__111char_traitsIcE6lengthEPKc
	movq	-1672(%rbp), %rdi       ## 8-byte Reload
	movq	-1664(%rbp), %rsi       ## 8-byte Reload
	movq	%rax, %rdx
	callq	__ZNSt3__112basic_stringIcNS_11char_traitsIcEENS_9allocatorIcEEE6__initEPKcm
Ltmp199:
	movq	-1648(%rbp), %rdi       ## 8-byte Reload
	callq	__ZL6stdOutNSt3__112basic_stringIcNS_11char_traitsIcEENS_9allocatorIcEEEE
Ltmp200:
	jmp	LBB10_81
LBB10_81:
	leaq	-1320(%rbp), %rdi
	callq	__ZNSt3__112basic_stringIcNS_11char_traitsIcEENS_9allocatorIcEEED1Ev
	movl	$0, -772(%rbp)
	jmp	LBB10_84
LBB10_82:
Ltmp201:
	movl	%edx, %ecx
	movq	%rax, -816(%rbp)
	movl	%ecx, -820(%rbp)
Ltmp202:
	leaq	-1320(%rbp), %rdi
	callq	__ZNSt3__112basic_stringIcNS_11char_traitsIcEENS_9allocatorIcEEED1Ev
Ltmp203:
	jmp	LBB10_83
LBB10_83:
	jmp	LBB10_85
LBB10_84:
	movl	-772(%rbp), %eax
	addq	$1680, %rsp             ## imm = 0x690
	popq	%rbp
	retq
LBB10_85:
	movq	-816(%rbp), %rdi
	callq	__Unwind_Resume
LBB10_86:
Ltmp214:
	movl	%edx, %ecx
	movq	%rax, %rdi
	movl	%ecx, -1676(%rbp)       ## 4-byte Spill
	callq	___clang_call_terminate
Lfunc_end2:
	.cfi_endproc
	.section	__TEXT,__gcc_except_tab
	.align	2
GCC_except_table10:
Lexception2:
	.byte	255                     ## @LPStart Encoding = omit
	.byte	155                     ## @TType Encoding = indirect pcrel sdata4
	.ascii	"\240\005"              ## @TType base offset
	.byte	3                       ## Call site Encoding = udata4
	.ascii	"\227\005"              ## Call site table length
Lset60 = Lfunc_begin2-Lfunc_begin2      ## >> Call Site 1 <<
	.long	Lset60
Lset61 = Ltmp89-Lfunc_begin2            ##   Call between Lfunc_begin2 and Ltmp89
	.long	Lset61
	.long	0                       ##     has no landing pad
	.byte	0                       ##   On action: cleanup
Lset62 = Ltmp89-Lfunc_begin2            ## >> Call Site 2 <<
	.long	Lset62
Lset63 = Ltmp90-Ltmp89                  ##   Call between Ltmp89 and Ltmp90
	.long	Lset63
Lset64 = Ltmp91-Lfunc_begin2            ##     jumps to Ltmp91
	.long	Lset64
	.byte	0                       ##   On action: cleanup
Lset65 = Ltmp90-Lfunc_begin2            ## >> Call Site 3 <<
	.long	Lset65
Lset66 = Ltmp94-Ltmp90                  ##   Call between Ltmp90 and Ltmp94
	.long	Lset66
	.long	0                       ##     has no landing pad
	.byte	0                       ##   On action: cleanup
Lset67 = Ltmp94-Lfunc_begin2            ## >> Call Site 4 <<
	.long	Lset67
Lset68 = Ltmp95-Ltmp94                  ##   Call between Ltmp94 and Ltmp95
	.long	Lset68
Lset69 = Ltmp96-Lfunc_begin2            ##     jumps to Ltmp96
	.long	Lset69
	.byte	0                       ##   On action: cleanup
Lset70 = Ltmp95-Lfunc_begin2            ## >> Call Site 5 <<
	.long	Lset70
Lset71 = Ltmp99-Ltmp95                  ##   Call between Ltmp95 and Ltmp99
	.long	Lset71
	.long	0                       ##     has no landing pad
	.byte	0                       ##   On action: cleanup
Lset72 = Ltmp99-Lfunc_begin2            ## >> Call Site 6 <<
	.long	Lset72
Lset73 = Ltmp100-Ltmp99                 ##   Call between Ltmp99 and Ltmp100
	.long	Lset73
Lset74 = Ltmp136-Lfunc_begin2           ##     jumps to Ltmp136
	.long	Lset74
	.byte	0                       ##   On action: cleanup
Lset75 = Ltmp101-Lfunc_begin2           ## >> Call Site 7 <<
	.long	Lset75
Lset76 = Ltmp102-Ltmp101                ##   Call between Ltmp101 and Ltmp102
	.long	Lset76
Lset77 = Ltmp131-Lfunc_begin2           ##     jumps to Ltmp131
	.long	Lset77
	.byte	0                       ##   On action: cleanup
Lset78 = Ltmp103-Lfunc_begin2           ## >> Call Site 8 <<
	.long	Lset78
Lset79 = Ltmp104-Ltmp103                ##   Call between Ltmp103 and Ltmp104
	.long	Lset79
Lset80 = Ltmp126-Lfunc_begin2           ##     jumps to Ltmp126
	.long	Lset80
	.byte	0                       ##   On action: cleanup
Lset81 = Ltmp105-Lfunc_begin2           ## >> Call Site 9 <<
	.long	Lset81
Lset82 = Ltmp106-Ltmp105                ##   Call between Ltmp105 and Ltmp106
	.long	Lset82
Lset83 = Ltmp121-Lfunc_begin2           ##     jumps to Ltmp121
	.long	Lset83
	.byte	0                       ##   On action: cleanup
Lset84 = Ltmp107-Lfunc_begin2           ## >> Call Site 10 <<
	.long	Lset84
Lset85 = Ltmp108-Ltmp107                ##   Call between Ltmp107 and Ltmp108
	.long	Lset85
Lset86 = Ltmp116-Lfunc_begin2           ##     jumps to Ltmp116
	.long	Lset86
	.byte	0                       ##   On action: cleanup
Lset87 = Ltmp109-Lfunc_begin2           ## >> Call Site 11 <<
	.long	Lset87
Lset88 = Ltmp110-Ltmp109                ##   Call between Ltmp109 and Ltmp110
	.long	Lset88
Lset89 = Ltmp111-Lfunc_begin2           ##     jumps to Ltmp111
	.long	Lset89
	.byte	0                       ##   On action: cleanup
Lset90 = Ltmp114-Lfunc_begin2           ## >> Call Site 12 <<
	.long	Lset90
Lset91 = Ltmp115-Ltmp114                ##   Call between Ltmp114 and Ltmp115
	.long	Lset91
Lset92 = Ltmp116-Lfunc_begin2           ##     jumps to Ltmp116
	.long	Lset92
	.byte	0                       ##   On action: cleanup
Lset93 = Ltmp119-Lfunc_begin2           ## >> Call Site 13 <<
	.long	Lset93
Lset94 = Ltmp120-Ltmp119                ##   Call between Ltmp119 and Ltmp120
	.long	Lset94
Lset95 = Ltmp121-Lfunc_begin2           ##     jumps to Ltmp121
	.long	Lset95
	.byte	0                       ##   On action: cleanup
Lset96 = Ltmp124-Lfunc_begin2           ## >> Call Site 14 <<
	.long	Lset96
Lset97 = Ltmp125-Ltmp124                ##   Call between Ltmp124 and Ltmp125
	.long	Lset97
Lset98 = Ltmp126-Lfunc_begin2           ##     jumps to Ltmp126
	.long	Lset98
	.byte	0                       ##   On action: cleanup
Lset99 = Ltmp129-Lfunc_begin2           ## >> Call Site 15 <<
	.long	Lset99
Lset100 = Ltmp130-Ltmp129               ##   Call between Ltmp129 and Ltmp130
	.long	Lset100
Lset101 = Ltmp131-Lfunc_begin2          ##     jumps to Ltmp131
	.long	Lset101
	.byte	0                       ##   On action: cleanup
Lset102 = Ltmp134-Lfunc_begin2          ## >> Call Site 16 <<
	.long	Lset102
Lset103 = Ltmp135-Ltmp134               ##   Call between Ltmp134 and Ltmp135
	.long	Lset103
Lset104 = Ltmp136-Lfunc_begin2          ##     jumps to Ltmp136
	.long	Lset104
	.byte	0                       ##   On action: cleanup
Lset105 = Ltmp135-Lfunc_begin2          ## >> Call Site 17 <<
	.long	Lset105
Lset106 = Ltmp139-Ltmp135               ##   Call between Ltmp135 and Ltmp139
	.long	Lset106
	.long	0                       ##     has no landing pad
	.byte	0                       ##   On action: cleanup
Lset107 = Ltmp139-Lfunc_begin2          ## >> Call Site 18 <<
	.long	Lset107
Lset108 = Ltmp140-Ltmp139               ##   Call between Ltmp139 and Ltmp140
	.long	Lset108
Lset109 = Ltmp155-Lfunc_begin2          ##     jumps to Ltmp155
	.long	Lset109
	.byte	0                       ##   On action: cleanup
Lset110 = Ltmp141-Lfunc_begin2          ## >> Call Site 19 <<
	.long	Lset110
Lset111 = Ltmp142-Ltmp141               ##   Call between Ltmp141 and Ltmp142
	.long	Lset111
Lset112 = Ltmp150-Lfunc_begin2          ##     jumps to Ltmp150
	.long	Lset112
	.byte	0                       ##   On action: cleanup
Lset113 = Ltmp143-Lfunc_begin2          ## >> Call Site 20 <<
	.long	Lset113
Lset114 = Ltmp144-Ltmp143               ##   Call between Ltmp143 and Ltmp144
	.long	Lset114
Lset115 = Ltmp145-Lfunc_begin2          ##     jumps to Ltmp145
	.long	Lset115
	.byte	0                       ##   On action: cleanup
Lset116 = Ltmp148-Lfunc_begin2          ## >> Call Site 21 <<
	.long	Lset116
Lset117 = Ltmp149-Ltmp148               ##   Call between Ltmp148 and Ltmp149
	.long	Lset117
Lset118 = Ltmp150-Lfunc_begin2          ##     jumps to Ltmp150
	.long	Lset118
	.byte	0                       ##   On action: cleanup
Lset119 = Ltmp153-Lfunc_begin2          ## >> Call Site 22 <<
	.long	Lset119
Lset120 = Ltmp154-Ltmp153               ##   Call between Ltmp153 and Ltmp154
	.long	Lset120
Lset121 = Ltmp155-Lfunc_begin2          ##     jumps to Ltmp155
	.long	Lset121
	.byte	0                       ##   On action: cleanup
Lset122 = Ltmp154-Lfunc_begin2          ## >> Call Site 23 <<
	.long	Lset122
Lset123 = Ltmp158-Ltmp154               ##   Call between Ltmp154 and Ltmp158
	.long	Lset123
	.long	0                       ##     has no landing pad
	.byte	0                       ##   On action: cleanup
Lset124 = Ltmp158-Lfunc_begin2          ## >> Call Site 24 <<
	.long	Lset124
Lset125 = Ltmp159-Ltmp158               ##   Call between Ltmp158 and Ltmp159
	.long	Lset125
Lset126 = Ltmp160-Lfunc_begin2          ##     jumps to Ltmp160
	.long	Lset126
	.byte	0                       ##   On action: cleanup
Lset127 = Ltmp159-Lfunc_begin2          ## >> Call Site 25 <<
	.long	Lset127
Lset128 = Ltmp163-Ltmp159               ##   Call between Ltmp159 and Ltmp163
	.long	Lset128
	.long	0                       ##     has no landing pad
	.byte	0                       ##   On action: cleanup
Lset129 = Ltmp163-Lfunc_begin2          ## >> Call Site 26 <<
	.long	Lset129
Lset130 = Ltmp164-Ltmp163               ##   Call between Ltmp163 and Ltmp164
	.long	Lset130
Lset131 = Ltmp165-Lfunc_begin2          ##     jumps to Ltmp165
	.long	Lset131
	.byte	0                       ##   On action: cleanup
Lset132 = Ltmp164-Lfunc_begin2          ## >> Call Site 27 <<
	.long	Lset132
Lset133 = Ltmp168-Ltmp164               ##   Call between Ltmp164 and Ltmp168
	.long	Lset133
	.long	0                       ##     has no landing pad
	.byte	0                       ##   On action: cleanup
Lset134 = Ltmp168-Lfunc_begin2          ## >> Call Site 28 <<
	.long	Lset134
Lset135 = Ltmp169-Ltmp168               ##   Call between Ltmp168 and Ltmp169
	.long	Lset135
Lset136 = Ltmp170-Lfunc_begin2          ##     jumps to Ltmp170
	.long	Lset136
	.byte	0                       ##   On action: cleanup
Lset137 = Ltmp169-Lfunc_begin2          ## >> Call Site 29 <<
	.long	Lset137
Lset138 = Ltmp173-Ltmp169               ##   Call between Ltmp169 and Ltmp173
	.long	Lset138
	.long	0                       ##     has no landing pad
	.byte	0                       ##   On action: cleanup
Lset139 = Ltmp173-Lfunc_begin2          ## >> Call Site 30 <<
	.long	Lset139
Lset140 = Ltmp174-Ltmp173               ##   Call between Ltmp173 and Ltmp174
	.long	Lset140
Lset141 = Ltmp175-Lfunc_begin2          ##     jumps to Ltmp175
	.long	Lset141
	.byte	0                       ##   On action: cleanup
Lset142 = Ltmp174-Lfunc_begin2          ## >> Call Site 31 <<
	.long	Lset142
Lset143 = Ltmp178-Ltmp174               ##   Call between Ltmp174 and Ltmp178
	.long	Lset143
	.long	0                       ##     has no landing pad
	.byte	0                       ##   On action: cleanup
Lset144 = Ltmp178-Lfunc_begin2          ## >> Call Site 32 <<
	.long	Lset144
Lset145 = Ltmp179-Ltmp178               ##   Call between Ltmp178 and Ltmp179
	.long	Lset145
Lset146 = Ltmp180-Lfunc_begin2          ##     jumps to Ltmp180
	.long	Lset146
	.byte	0                       ##   On action: cleanup
Lset147 = Ltmp179-Lfunc_begin2          ## >> Call Site 33 <<
	.long	Lset147
Lset148 = Ltmp183-Ltmp179               ##   Call between Ltmp179 and Ltmp183
	.long	Lset148
	.long	0                       ##     has no landing pad
	.byte	0                       ##   On action: cleanup
Lset149 = Ltmp183-Lfunc_begin2          ## >> Call Site 34 <<
	.long	Lset149
Lset150 = Ltmp184-Ltmp183               ##   Call between Ltmp183 and Ltmp184
	.long	Lset150
Lset151 = Ltmp185-Lfunc_begin2          ##     jumps to Ltmp185
	.long	Lset151
	.byte	0                       ##   On action: cleanup
Lset152 = Ltmp184-Lfunc_begin2          ## >> Call Site 35 <<
	.long	Lset152
Lset153 = Ltmp188-Ltmp184               ##   Call between Ltmp184 and Ltmp188
	.long	Lset153
	.long	0                       ##     has no landing pad
	.byte	0                       ##   On action: cleanup
Lset154 = Ltmp188-Lfunc_begin2          ## >> Call Site 36 <<
	.long	Lset154
Lset155 = Ltmp189-Ltmp188               ##   Call between Ltmp188 and Ltmp189
	.long	Lset155
Lset156 = Ltmp190-Lfunc_begin2          ##     jumps to Ltmp190
	.long	Lset156
	.byte	0                       ##   On action: cleanup
Lset157 = Ltmp189-Lfunc_begin2          ## >> Call Site 37 <<
	.long	Lset157
Lset158 = Ltmp191-Ltmp189               ##   Call between Ltmp189 and Ltmp191
	.long	Lset158
	.long	0                       ##     has no landing pad
	.byte	0                       ##   On action: cleanup
Lset159 = Ltmp191-Lfunc_begin2          ## >> Call Site 38 <<
	.long	Lset159
Lset160 = Ltmp192-Ltmp191               ##   Call between Ltmp191 and Ltmp192
	.long	Lset160
Lset161 = Ltmp193-Lfunc_begin2          ##     jumps to Ltmp193
	.long	Lset161
	.byte	0                       ##   On action: cleanup
Lset162 = Ltmp192-Lfunc_begin2          ## >> Call Site 39 <<
	.long	Lset162
Lset163 = Ltmp194-Ltmp192               ##   Call between Ltmp192 and Ltmp194
	.long	Lset163
	.long	0                       ##     has no landing pad
	.byte	0                       ##   On action: cleanup
Lset164 = Ltmp194-Lfunc_begin2          ## >> Call Site 40 <<
	.long	Lset164
Lset165 = Ltmp195-Ltmp194               ##   Call between Ltmp194 and Ltmp195
	.long	Lset165
Lset166 = Ltmp196-Lfunc_begin2          ##     jumps to Ltmp196
	.long	Lset166
	.byte	0                       ##   On action: cleanup
Lset167 = Ltmp195-Lfunc_begin2          ## >> Call Site 41 <<
	.long	Lset167
Lset168 = Ltmp204-Ltmp195               ##   Call between Ltmp195 and Ltmp204
	.long	Lset168
	.long	0                       ##     has no landing pad
	.byte	0                       ##   On action: cleanup
Lset169 = Ltmp204-Lfunc_begin2          ## >> Call Site 42 <<
	.long	Lset169
Lset170 = Ltmp205-Ltmp204               ##   Call between Ltmp204 and Ltmp205
	.long	Lset170
Lset171 = Ltmp206-Lfunc_begin2          ##     jumps to Ltmp206
	.long	Lset171
	.byte	0                       ##   On action: cleanup
Lset172 = Ltmp205-Lfunc_begin2          ## >> Call Site 43 <<
	.long	Lset172
Lset173 = Ltmp209-Ltmp205               ##   Call between Ltmp205 and Ltmp209
	.long	Lset173
	.long	0                       ##     has no landing pad
	.byte	0                       ##   On action: cleanup
Lset174 = Ltmp209-Lfunc_begin2          ## >> Call Site 44 <<
	.long	Lset174
Lset175 = Ltmp210-Ltmp209               ##   Call between Ltmp209 and Ltmp210
	.long	Lset175
Lset176 = Ltmp211-Lfunc_begin2          ##     jumps to Ltmp211
	.long	Lset176
	.byte	0                       ##   On action: cleanup
Lset177 = Ltmp210-Lfunc_begin2          ## >> Call Site 45 <<
	.long	Lset177
Lset178 = Ltmp92-Ltmp210                ##   Call between Ltmp210 and Ltmp92
	.long	Lset178
	.long	0                       ##     has no landing pad
	.byte	0                       ##   On action: cleanup
Lset179 = Ltmp92-Lfunc_begin2           ## >> Call Site 46 <<
	.long	Lset179
Lset180 = Ltmp213-Ltmp92                ##   Call between Ltmp92 and Ltmp213
	.long	Lset180
Lset181 = Ltmp214-Lfunc_begin2          ##     jumps to Ltmp214
	.long	Lset181
	.byte	1                       ##   On action: 1
Lset182 = Ltmp213-Lfunc_begin2          ## >> Call Site 47 <<
	.long	Lset182
Lset183 = Ltmp199-Ltmp213               ##   Call between Ltmp213 and Ltmp199
	.long	Lset183
	.long	0                       ##     has no landing pad
	.byte	0                       ##   On action: cleanup
Lset184 = Ltmp199-Lfunc_begin2          ## >> Call Site 48 <<
	.long	Lset184
Lset185 = Ltmp200-Ltmp199               ##   Call between Ltmp199 and Ltmp200
	.long	Lset185
Lset186 = Ltmp201-Lfunc_begin2          ##     jumps to Ltmp201
	.long	Lset186
	.byte	0                       ##   On action: cleanup
Lset187 = Ltmp200-Lfunc_begin2          ## >> Call Site 49 <<
	.long	Lset187
Lset188 = Ltmp202-Ltmp200               ##   Call between Ltmp200 and Ltmp202
	.long	Lset188
	.long	0                       ##     has no landing pad
	.byte	0                       ##   On action: cleanup
Lset189 = Ltmp202-Lfunc_begin2          ## >> Call Site 50 <<
	.long	Lset189
Lset190 = Ltmp203-Ltmp202               ##   Call between Ltmp202 and Ltmp203
	.long	Lset190
Lset191 = Ltmp214-Lfunc_begin2          ##     jumps to Ltmp214
	.long	Lset191
	.byte	1                       ##   On action: 1
Lset192 = Ltmp203-Lfunc_begin2          ## >> Call Site 51 <<
	.long	Lset192
Lset193 = Lfunc_end2-Ltmp203            ##   Call between Ltmp203 and Lfunc_end2
	.long	Lset193
	.long	0                       ##     has no landing pad
	.byte	0                       ##   On action: cleanup
	.byte	1                       ## >> Action Record 1 <<
                                        ##   Catch TypeInfo 1
	.byte	0                       ##   No further actions
                                        ## >> Catch TypeInfos <<
	.long	0                       ## TypeInfo 1
	.align	2

	.section	__TEXT,__text,regular,pure_instructions
	.globl	__ZNSt3__1plIcNS_11char_traitsIcEENS_9allocatorIcEEEENS_12basic_stringIT_T0_T1_EERKS9_PKS6_
	.weak_def_can_be_hidden	__ZNSt3__1plIcNS_11char_traitsIcEENS_9allocatorIcEEEENS_12basic_stringIT_T0_T1_EERKS9_PKS6_
	.align	4, 0x90
__ZNSt3__1plIcNS_11char_traitsIcEENS_9allocatorIcEEEENS_12basic_stringIT_T0_T1_EERKS9_PKS6_: ## @_ZNSt3__1plIcNS_11char_traitsIcEENS_9allocatorIcEEEENS_12basic_stringIT_T0_T1_EERKS9_PKS6_
Lfunc_begin3:
	.cfi_startproc
	.cfi_personality 155, ___gxx_personality_v0
	.cfi_lsda 16, Lexception3
## BB#0:
	pushq	%rbp
Ltmp228:
	.cfi_def_cfa_offset 16
Ltmp229:
	.cfi_offset %rbp, -16
	movq	%rsp, %rbp
Ltmp230:
	.cfi_def_cfa_register %rbp
	pushq	%rbx
	subq	$536, %rsp              ## imm = 0x218
Ltmp231:
	.cfi_offset %rbx, -24
	movq	%rdi, %rax
	xorl	%ecx, %ecx
	movl	$24, %r8d
	movl	%r8d, %r9d
	leaq	-256(%rbp), %r10
	leaq	-280(%rbp), %r11
	leaq	-416(%rbp), %rbx
	movq	%rsi, -400(%rbp)
	movq	%rdx, -408(%rbp)
	movb	$0, -409(%rbp)
	movq	-400(%rbp), %rdx
	movq	%rdx, -392(%rbp)
	movq	-392(%rbp), %rdx
	movq	%rdx, -376(%rbp)
	movq	-376(%rbp), %rdx
	movq	%rdx, -368(%rbp)
	movq	-368(%rbp), %rdx
	movq	%rdx, -360(%rbp)
	movq	%rdi, -344(%rbp)
	movq	%rbx, -352(%rbp)
	movq	-344(%rbp), %rdx
	movq	-352(%rbp), %rsi
	movq	%rdx, -320(%rbp)
	movq	%rsi, -328(%rbp)
	movq	-320(%rbp), %rdx
	movq	%rdx, -312(%rbp)
	movq	-312(%rbp), %rsi
	movq	%rsi, -288(%rbp)
	movq	-288(%rbp), %rsi
	movq	%r11, -272(%rbp)
	movq	%rsi, -264(%rbp)
	movq	-264(%rbp), %rsi
	movq	%r10, -248(%rbp)
	movq	%rdi, -464(%rbp)        ## 8-byte Spill
	movq	%rsi, %rdi
	movl	%ecx, %esi
	movq	%rdx, -472(%rbp)        ## 8-byte Spill
	movq	%r9, %rdx
	movq	%rax, -480(%rbp)        ## 8-byte Spill
	callq	_memset
	movq	-472(%rbp), %rax        ## 8-byte Reload
	movq	%rax, -224(%rbp)
	movq	-224(%rbp), %rdx
	movq	%rdx, -216(%rbp)
	movq	-216(%rbp), %rdx
	movq	%rdx, -208(%rbp)
	movq	-208(%rbp), %rdx
	movq	%rdx, -232(%rbp)
	movl	$0, -236(%rbp)
LBB11_1:                                ## =>This Inner Loop Header: Depth=1
	cmpl	$3, -236(%rbp)
	jae	LBB11_3
## BB#2:                                ##   in Loop: Header=BB11_1 Depth=1
	movl	-236(%rbp), %eax
	movl	%eax, %ecx
	movq	-232(%rbp), %rdx
	movq	$0, (%rdx,%rcx,8)
	movl	-236(%rbp), %eax
	addl	$1, %eax
	movl	%eax, -236(%rbp)
	jmp	LBB11_1
LBB11_3:
	movq	-400(%rbp), %rax
	movq	%rax, -88(%rbp)
	movq	-88(%rbp), %rax
	movq	%rax, -80(%rbp)
	movq	-80(%rbp), %rcx
	movq	%rcx, -72(%rbp)
	movq	-72(%rbp), %rcx
	movq	%rcx, -64(%rbp)
	movq	-64(%rbp), %rcx
	movzbl	(%rcx), %edx
	andl	$1, %edx
	cmpl	$0, %edx
	movq	%rax, -488(%rbp)        ## 8-byte Spill
	je	LBB11_5
## BB#4:
	movq	-488(%rbp), %rax        ## 8-byte Reload
	movq	%rax, -32(%rbp)
	movq	-32(%rbp), %rcx
	movq	%rcx, -24(%rbp)
	movq	-24(%rbp), %rcx
	movq	%rcx, -16(%rbp)
	movq	-16(%rbp), %rcx
	movq	8(%rcx), %rcx
	movq	%rcx, -496(%rbp)        ## 8-byte Spill
	jmp	LBB11_6
LBB11_5:
	movq	-488(%rbp), %rax        ## 8-byte Reload
	movq	%rax, -56(%rbp)
	movq	-56(%rbp), %rcx
	movq	%rcx, -48(%rbp)
	movq	-48(%rbp), %rcx
	movq	%rcx, -40(%rbp)
	movq	-40(%rbp), %rcx
	movzbl	(%rcx), %edx
	sarl	$1, %edx
	movslq	%edx, %rcx
	movq	%rcx, -496(%rbp)        ## 8-byte Spill
LBB11_6:
	movq	-496(%rbp), %rax        ## 8-byte Reload
	movq	%rax, -432(%rbp)
	movq	-408(%rbp), %rdi
Ltmp218:
	callq	__ZNSt3__111char_traitsIcE6lengthEPKc
Ltmp219:
	movq	%rax, -504(%rbp)        ## 8-byte Spill
	jmp	LBB11_7
LBB11_7:
	movq	-504(%rbp), %rax        ## 8-byte Reload
	movq	%rax, -440(%rbp)
	movq	-400(%rbp), %rcx
	movq	%rcx, -200(%rbp)
	movq	-200(%rbp), %rcx
	movq	%rcx, -192(%rbp)
	movq	-192(%rbp), %rcx
	movq	%rcx, -184(%rbp)
	movq	-184(%rbp), %rdx
	movq	%rdx, -176(%rbp)
	movq	-176(%rbp), %rdx
	movq	%rdx, -168(%rbp)
	movq	-168(%rbp), %rdx
	movzbl	(%rdx), %esi
	andl	$1, %esi
	cmpl	$0, %esi
	movq	%rcx, -512(%rbp)        ## 8-byte Spill
	je	LBB11_9
## BB#8:
	movq	-512(%rbp), %rax        ## 8-byte Reload
	movq	%rax, -120(%rbp)
	movq	-120(%rbp), %rcx
	movq	%rcx, -112(%rbp)
	movq	-112(%rbp), %rcx
	movq	%rcx, -104(%rbp)
	movq	-104(%rbp), %rcx
	movq	16(%rcx), %rcx
	movq	%rcx, -520(%rbp)        ## 8-byte Spill
	jmp	LBB11_10
LBB11_9:
	movq	-512(%rbp), %rax        ## 8-byte Reload
	movq	%rax, -160(%rbp)
	movq	-160(%rbp), %rcx
	movq	%rcx, -152(%rbp)
	movq	-152(%rbp), %rcx
	movq	%rcx, -144(%rbp)
	movq	-144(%rbp), %rcx
	addq	$1, %rcx
	movq	%rcx, -136(%rbp)
	movq	-136(%rbp), %rcx
	movq	%rcx, -128(%rbp)
	movq	-128(%rbp), %rcx
	movq	%rcx, -520(%rbp)        ## 8-byte Spill
LBB11_10:
	movq	-520(%rbp), %rax        ## 8-byte Reload
	movq	%rax, -96(%rbp)
	movq	-432(%rbp), %rcx
	movq	-440(%rbp), %rdx
	movq	%rcx, %rsi
	addq	%rdx, %rsi
Ltmp220:
	movq	-464(%rbp), %rdi        ## 8-byte Reload
	movq	%rsi, -528(%rbp)        ## 8-byte Spill
	movq	%rax, %rsi
	movq	%rcx, %rdx
	movq	-528(%rbp), %rcx        ## 8-byte Reload
	callq	__ZNSt3__112basic_stringIcNS_11char_traitsIcEENS_9allocatorIcEEE6__initEPKcmm
Ltmp221:
	jmp	LBB11_11
LBB11_11:
	movq	-408(%rbp), %rsi
	movq	-440(%rbp), %rdx
Ltmp222:
	movq	-464(%rbp), %rdi        ## 8-byte Reload
	callq	__ZNSt3__112basic_stringIcNS_11char_traitsIcEENS_9allocatorIcEEE6appendEPKcm
Ltmp223:
	movq	%rax, -536(%rbp)        ## 8-byte Spill
	jmp	LBB11_12
LBB11_12:
	movb	$1, -409(%rbp)
	testb	$1, -409(%rbp)
	jne	LBB11_15
	jmp	LBB11_14
LBB11_13:
Ltmp224:
	movl	%edx, %ecx
	movq	%rax, -448(%rbp)
	movl	%ecx, -452(%rbp)
Ltmp225:
	movq	-464(%rbp), %rdi        ## 8-byte Reload
	callq	__ZNSt3__112basic_stringIcNS_11char_traitsIcEENS_9allocatorIcEEED1Ev
Ltmp226:
	jmp	LBB11_16
LBB11_14:
	movq	-464(%rbp), %rdi        ## 8-byte Reload
	callq	__ZNSt3__112basic_stringIcNS_11char_traitsIcEENS_9allocatorIcEEED1Ev
LBB11_15:
	movq	-480(%rbp), %rax        ## 8-byte Reload
	addq	$536, %rsp              ## imm = 0x218
	popq	%rbx
	popq	%rbp
	retq
LBB11_16:
	jmp	LBB11_17
LBB11_17:
	movq	-448(%rbp), %rdi
	callq	__Unwind_Resume
LBB11_18:
Ltmp227:
	movl	%edx, %ecx
	movq	%rax, %rdi
	movl	%ecx, -540(%rbp)        ## 4-byte Spill
	callq	___clang_call_terminate
Lfunc_end3:
	.cfi_endproc
	.section	__TEXT,__gcc_except_tab
	.align	2
GCC_except_table11:
Lexception3:
	.byte	255                     ## @LPStart Encoding = omit
	.byte	155                     ## @TType Encoding = indirect pcrel sdata4
	.asciz	"\274"                  ## @TType base offset
	.byte	3                       ## Call site Encoding = udata4
	.byte	52                      ## Call site table length
Lset194 = Lfunc_begin3-Lfunc_begin3     ## >> Call Site 1 <<
	.long	Lset194
Lset195 = Ltmp218-Lfunc_begin3          ##   Call between Lfunc_begin3 and Ltmp218
	.long	Lset195
	.long	0                       ##     has no landing pad
	.byte	0                       ##   On action: cleanup
Lset196 = Ltmp218-Lfunc_begin3          ## >> Call Site 2 <<
	.long	Lset196
Lset197 = Ltmp223-Ltmp218               ##   Call between Ltmp218 and Ltmp223
	.long	Lset197
Lset198 = Ltmp224-Lfunc_begin3          ##     jumps to Ltmp224
	.long	Lset198
	.byte	0                       ##   On action: cleanup
Lset199 = Ltmp225-Lfunc_begin3          ## >> Call Site 3 <<
	.long	Lset199
Lset200 = Ltmp226-Ltmp225               ##   Call between Ltmp225 and Ltmp226
	.long	Lset200
Lset201 = Ltmp227-Lfunc_begin3          ##     jumps to Ltmp227
	.long	Lset201
	.byte	1                       ##   On action: 1
Lset202 = Ltmp226-Lfunc_begin3          ## >> Call Site 4 <<
	.long	Lset202
Lset203 = Lfunc_end3-Ltmp226            ##   Call between Ltmp226 and Lfunc_end3
	.long	Lset203
	.long	0                       ##     has no landing pad
	.byte	0                       ##   On action: cleanup
	.byte	1                       ## >> Action Record 1 <<
                                        ##   Catch TypeInfo 1
	.byte	0                       ##   No further actions
                                        ## >> Catch TypeInfos <<
	.long	0                       ## TypeInfo 1
	.align	2

	.section	__TEXT,__text,regular,pure_instructions
	.globl	__ZNSt3__1plIcNS_11char_traitsIcEENS_9allocatorIcEEEENS_12basic_stringIT_T0_T1_EERKS9_SB_
	.weak_def_can_be_hidden	__ZNSt3__1plIcNS_11char_traitsIcEENS_9allocatorIcEEEENS_12basic_stringIT_T0_T1_EERKS9_SB_
	.align	4, 0x90
__ZNSt3__1plIcNS_11char_traitsIcEENS_9allocatorIcEEEENS_12basic_stringIT_T0_T1_EERKS9_SB_: ## @_ZNSt3__1plIcNS_11char_traitsIcEENS_9allocatorIcEEEENS_12basic_stringIT_T0_T1_EERKS9_SB_
Lfunc_begin4:
	.cfi_startproc
	.cfi_personality 155, ___gxx_personality_v0
	.cfi_lsda 16, Lexception4
## BB#0:
	pushq	%rbp
Ltmp240:
	.cfi_def_cfa_offset 16
Ltmp241:
	.cfi_offset %rbp, -16
	movq	%rsp, %rbp
Ltmp242:
	.cfi_def_cfa_register %rbp
	pushq	%rbx
	subq	$760, %rsp              ## imm = 0x2F8
Ltmp243:
	.cfi_offset %rbx, -24
	movq	%rdi, %rax
	xorl	%ecx, %ecx
	movl	$24, %r8d
	movl	%r8d, %r9d
	leaq	-448(%rbp), %r10
	leaq	-472(%rbp), %r11
	leaq	-608(%rbp), %rbx
	movq	%rsi, -592(%rbp)
	movq	%rdx, -600(%rbp)
	movb	$0, -601(%rbp)
	movq	-592(%rbp), %rdx
	movq	%rdx, -584(%rbp)
	movq	-584(%rbp), %rdx
	movq	%rdx, -568(%rbp)
	movq	-568(%rbp), %rdx
	movq	%rdx, -560(%rbp)
	movq	-560(%rbp), %rdx
	movq	%rdx, -552(%rbp)
	movq	%rdi, -536(%rbp)
	movq	%rbx, -544(%rbp)
	movq	-536(%rbp), %rdx
	movq	-544(%rbp), %rsi
	movq	%rdx, -512(%rbp)
	movq	%rsi, -520(%rbp)
	movq	-512(%rbp), %rdx
	movq	%rdx, -504(%rbp)
	movq	-504(%rbp), %rsi
	movq	%rsi, -480(%rbp)
	movq	-480(%rbp), %rsi
	movq	%r11, -464(%rbp)
	movq	%rsi, -456(%rbp)
	movq	-456(%rbp), %rsi
	movq	%r10, -440(%rbp)
	movq	%rdi, -656(%rbp)        ## 8-byte Spill
	movq	%rsi, %rdi
	movl	%ecx, %esi
	movq	%rdx, -664(%rbp)        ## 8-byte Spill
	movq	%r9, %rdx
	movq	%rax, -672(%rbp)        ## 8-byte Spill
	callq	_memset
	movq	-664(%rbp), %rax        ## 8-byte Reload
	movq	%rax, -416(%rbp)
	movq	-416(%rbp), %rdx
	movq	%rdx, -408(%rbp)
	movq	-408(%rbp), %rdx
	movq	%rdx, -400(%rbp)
	movq	-400(%rbp), %rdx
	movq	%rdx, -424(%rbp)
	movl	$0, -428(%rbp)
LBB12_1:                                ## =>This Inner Loop Header: Depth=1
	cmpl	$3, -428(%rbp)
	jae	LBB12_3
## BB#2:                                ##   in Loop: Header=BB12_1 Depth=1
	movl	-428(%rbp), %eax
	movl	%eax, %ecx
	movq	-424(%rbp), %rdx
	movq	$0, (%rdx,%rcx,8)
	movl	-428(%rbp), %eax
	addl	$1, %eax
	movl	%eax, -428(%rbp)
	jmp	LBB12_1
LBB12_3:
	movq	-592(%rbp), %rax
	movq	%rax, -88(%rbp)
	movq	-88(%rbp), %rax
	movq	%rax, -80(%rbp)
	movq	-80(%rbp), %rcx
	movq	%rcx, -72(%rbp)
	movq	-72(%rbp), %rcx
	movq	%rcx, -64(%rbp)
	movq	-64(%rbp), %rcx
	movzbl	(%rcx), %edx
	andl	$1, %edx
	cmpl	$0, %edx
	movq	%rax, -680(%rbp)        ## 8-byte Spill
	je	LBB12_5
## BB#4:
	movq	-680(%rbp), %rax        ## 8-byte Reload
	movq	%rax, -32(%rbp)
	movq	-32(%rbp), %rcx
	movq	%rcx, -24(%rbp)
	movq	-24(%rbp), %rcx
	movq	%rcx, -16(%rbp)
	movq	-16(%rbp), %rcx
	movq	8(%rcx), %rcx
	movq	%rcx, -688(%rbp)        ## 8-byte Spill
	jmp	LBB12_6
LBB12_5:
	movq	-680(%rbp), %rax        ## 8-byte Reload
	movq	%rax, -56(%rbp)
	movq	-56(%rbp), %rcx
	movq	%rcx, -48(%rbp)
	movq	-48(%rbp), %rcx
	movq	%rcx, -40(%rbp)
	movq	-40(%rbp), %rcx
	movzbl	(%rcx), %edx
	sarl	$1, %edx
	movslq	%edx, %rcx
	movq	%rcx, -688(%rbp)        ## 8-byte Spill
LBB12_6:
	movq	-688(%rbp), %rax        ## 8-byte Reload
	movq	%rax, -624(%rbp)
	movq	-600(%rbp), %rax
	movq	%rax, -168(%rbp)
	movq	-168(%rbp), %rax
	movq	%rax, -160(%rbp)
	movq	-160(%rbp), %rcx
	movq	%rcx, -152(%rbp)
	movq	-152(%rbp), %rcx
	movq	%rcx, -144(%rbp)
	movq	-144(%rbp), %rcx
	movzbl	(%rcx), %edx
	andl	$1, %edx
	cmpl	$0, %edx
	movq	%rax, -696(%rbp)        ## 8-byte Spill
	je	LBB12_8
## BB#7:
	movq	-696(%rbp), %rax        ## 8-byte Reload
	movq	%rax, -112(%rbp)
	movq	-112(%rbp), %rcx
	movq	%rcx, -104(%rbp)
	movq	-104(%rbp), %rcx
	movq	%rcx, -96(%rbp)
	movq	-96(%rbp), %rcx
	movq	8(%rcx), %rcx
	movq	%rcx, -704(%rbp)        ## 8-byte Spill
	jmp	LBB12_9
LBB12_8:
	movq	-696(%rbp), %rax        ## 8-byte Reload
	movq	%rax, -136(%rbp)
	movq	-136(%rbp), %rcx
	movq	%rcx, -128(%rbp)
	movq	-128(%rbp), %rcx
	movq	%rcx, -120(%rbp)
	movq	-120(%rbp), %rcx
	movzbl	(%rcx), %edx
	sarl	$1, %edx
	movslq	%edx, %rcx
	movq	%rcx, -704(%rbp)        ## 8-byte Spill
LBB12_9:
	movq	-704(%rbp), %rax        ## 8-byte Reload
	movq	%rax, -632(%rbp)
	movq	-592(%rbp), %rax
	movq	%rax, -280(%rbp)
	movq	-280(%rbp), %rax
	movq	%rax, -272(%rbp)
	movq	-272(%rbp), %rax
	movq	%rax, -264(%rbp)
	movq	-264(%rbp), %rcx
	movq	%rcx, -256(%rbp)
	movq	-256(%rbp), %rcx
	movq	%rcx, -248(%rbp)
	movq	-248(%rbp), %rcx
	movzbl	(%rcx), %edx
	andl	$1, %edx
	cmpl	$0, %edx
	movq	%rax, -712(%rbp)        ## 8-byte Spill
	je	LBB12_11
## BB#10:
	movq	-712(%rbp), %rax        ## 8-byte Reload
	movq	%rax, -200(%rbp)
	movq	-200(%rbp), %rcx
	movq	%rcx, -192(%rbp)
	movq	-192(%rbp), %rcx
	movq	%rcx, -184(%rbp)
	movq	-184(%rbp), %rcx
	movq	16(%rcx), %rcx
	movq	%rcx, -720(%rbp)        ## 8-byte Spill
	jmp	LBB12_12
LBB12_11:
	movq	-712(%rbp), %rax        ## 8-byte Reload
	movq	%rax, -240(%rbp)
	movq	-240(%rbp), %rcx
	movq	%rcx, -232(%rbp)
	movq	-232(%rbp), %rcx
	movq	%rcx, -224(%rbp)
	movq	-224(%rbp), %rcx
	addq	$1, %rcx
	movq	%rcx, -216(%rbp)
	movq	-216(%rbp), %rcx
	movq	%rcx, -208(%rbp)
	movq	-208(%rbp), %rcx
	movq	%rcx, -720(%rbp)        ## 8-byte Spill
LBB12_12:
	movq	-720(%rbp), %rax        ## 8-byte Reload
	movq	%rax, -176(%rbp)
	movq	-624(%rbp), %rcx
	movq	-632(%rbp), %rdx
	movq	%rcx, %rsi
	addq	%rdx, %rsi
Ltmp232:
	movq	-656(%rbp), %rdi        ## 8-byte Reload
	movq	%rsi, -728(%rbp)        ## 8-byte Spill
	movq	%rax, %rsi
	movq	%rcx, %rdx
	movq	-728(%rbp), %rcx        ## 8-byte Reload
	callq	__ZNSt3__112basic_stringIcNS_11char_traitsIcEENS_9allocatorIcEEE6__initEPKcmm
Ltmp233:
	jmp	LBB12_13
LBB12_13:
	movq	-600(%rbp), %rax
	movq	%rax, -392(%rbp)
	movq	-392(%rbp), %rax
	movq	%rax, -384(%rbp)
	movq	-384(%rbp), %rax
	movq	%rax, -376(%rbp)
	movq	-376(%rbp), %rcx
	movq	%rcx, -368(%rbp)
	movq	-368(%rbp), %rcx
	movq	%rcx, -360(%rbp)
	movq	-360(%rbp), %rcx
	movzbl	(%rcx), %edx
	andl	$1, %edx
	cmpl	$0, %edx
	movq	%rax, -736(%rbp)        ## 8-byte Spill
	je	LBB12_15
## BB#14:
	movq	-736(%rbp), %rax        ## 8-byte Reload
	movq	%rax, -312(%rbp)
	movq	-312(%rbp), %rcx
	movq	%rcx, -304(%rbp)
	movq	-304(%rbp), %rcx
	movq	%rcx, -296(%rbp)
	movq	-296(%rbp), %rcx
	movq	16(%rcx), %rcx
	movq	%rcx, -744(%rbp)        ## 8-byte Spill
	jmp	LBB12_16
LBB12_15:
	movq	-736(%rbp), %rax        ## 8-byte Reload
	movq	%rax, -352(%rbp)
	movq	-352(%rbp), %rcx
	movq	%rcx, -344(%rbp)
	movq	-344(%rbp), %rcx
	movq	%rcx, -336(%rbp)
	movq	-336(%rbp), %rcx
	addq	$1, %rcx
	movq	%rcx, -328(%rbp)
	movq	-328(%rbp), %rcx
	movq	%rcx, -320(%rbp)
	movq	-320(%rbp), %rcx
	movq	%rcx, -744(%rbp)        ## 8-byte Spill
LBB12_16:
	movq	-744(%rbp), %rax        ## 8-byte Reload
	movq	%rax, -288(%rbp)
	movq	-632(%rbp), %rdx
Ltmp234:
	movq	-656(%rbp), %rdi        ## 8-byte Reload
	movq	%rax, %rsi
	callq	__ZNSt3__112basic_stringIcNS_11char_traitsIcEENS_9allocatorIcEEE6appendEPKcm
Ltmp235:
	movq	%rax, -752(%rbp)        ## 8-byte Spill
	jmp	LBB12_17
LBB12_17:
	movb	$1, -601(%rbp)
	testb	$1, -601(%rbp)
	jne	LBB12_20
	jmp	LBB12_19
LBB12_18:
Ltmp236:
	movl	%edx, %ecx
	movq	%rax, -640(%rbp)
	movl	%ecx, -644(%rbp)
Ltmp237:
	movq	-656(%rbp), %rdi        ## 8-byte Reload
	callq	__ZNSt3__112basic_stringIcNS_11char_traitsIcEENS_9allocatorIcEEED1Ev
Ltmp238:
	jmp	LBB12_21
LBB12_19:
	movq	-656(%rbp), %rdi        ## 8-byte Reload
	callq	__ZNSt3__112basic_stringIcNS_11char_traitsIcEENS_9allocatorIcEEED1Ev
LBB12_20:
	movq	-672(%rbp), %rax        ## 8-byte Reload
	addq	$760, %rsp              ## imm = 0x2F8
	popq	%rbx
	popq	%rbp
	retq
LBB12_21:
	jmp	LBB12_22
LBB12_22:
	movq	-640(%rbp), %rdi
	callq	__Unwind_Resume
LBB12_23:
Ltmp239:
	movl	%edx, %ecx
	movq	%rax, %rdi
	movl	%ecx, -756(%rbp)        ## 4-byte Spill
	callq	___clang_call_terminate
Lfunc_end4:
	.cfi_endproc
	.section	__TEXT,__gcc_except_tab
	.align	2
GCC_except_table12:
Lexception4:
	.byte	255                     ## @LPStart Encoding = omit
	.byte	155                     ## @TType Encoding = indirect pcrel sdata4
	.asciz	"\274"                  ## @TType base offset
	.byte	3                       ## Call site Encoding = udata4
	.byte	52                      ## Call site table length
Lset204 = Lfunc_begin4-Lfunc_begin4     ## >> Call Site 1 <<
	.long	Lset204
Lset205 = Ltmp232-Lfunc_begin4          ##   Call between Lfunc_begin4 and Ltmp232
	.long	Lset205
	.long	0                       ##     has no landing pad
	.byte	0                       ##   On action: cleanup
Lset206 = Ltmp232-Lfunc_begin4          ## >> Call Site 2 <<
	.long	Lset206
Lset207 = Ltmp235-Ltmp232               ##   Call between Ltmp232 and Ltmp235
	.long	Lset207
Lset208 = Ltmp236-Lfunc_begin4          ##     jumps to Ltmp236
	.long	Lset208
	.byte	0                       ##   On action: cleanup
Lset209 = Ltmp237-Lfunc_begin4          ## >> Call Site 3 <<
	.long	Lset209
Lset210 = Ltmp238-Ltmp237               ##   Call between Ltmp237 and Ltmp238
	.long	Lset210
Lset211 = Ltmp239-Lfunc_begin4          ##     jumps to Ltmp239
	.long	Lset211
	.byte	1                       ##   On action: 1
Lset212 = Ltmp238-Lfunc_begin4          ## >> Call Site 4 <<
	.long	Lset212
Lset213 = Lfunc_end4-Ltmp238            ##   Call between Ltmp238 and Lfunc_end4
	.long	Lset213
	.long	0                       ##     has no landing pad
	.byte	0                       ##   On action: cleanup
	.byte	1                       ## >> Action Record 1 <<
                                        ##   Catch TypeInfo 1
	.byte	0                       ##   No further actions
                                        ## >> Catch TypeInfos <<
	.long	0                       ## TypeInfo 1
	.align	2

	.section	__TEXT,__text,regular,pure_instructions
	.globl	__ZNSt3__1plIcNS_11char_traitsIcEENS_9allocatorIcEEEENS_12basic_stringIT_T0_T1_EEPKS6_RKS9_
	.weak_def_can_be_hidden	__ZNSt3__1plIcNS_11char_traitsIcEENS_9allocatorIcEEEENS_12basic_stringIT_T0_T1_EEPKS6_RKS9_
	.align	4, 0x90
__ZNSt3__1plIcNS_11char_traitsIcEENS_9allocatorIcEEEENS_12basic_stringIT_T0_T1_EEPKS6_RKS9_: ## @_ZNSt3__1plIcNS_11char_traitsIcEENS_9allocatorIcEEEENS_12basic_stringIT_T0_T1_EEPKS6_RKS9_
Lfunc_begin5:
	.cfi_startproc
	.cfi_personality 155, ___gxx_personality_v0
	.cfi_lsda 16, Lexception5
## BB#0:
	pushq	%rbp
Ltmp254:
	.cfi_def_cfa_offset 16
Ltmp255:
	.cfi_offset %rbp, -16
	movq	%rsp, %rbp
Ltmp256:
	.cfi_def_cfa_register %rbp
	pushq	%rbx
	subq	$536, %rsp              ## imm = 0x218
Ltmp257:
	.cfi_offset %rbx, -24
	movq	%rdi, %rax
	xorl	%ecx, %ecx
	movl	$24, %r8d
	movl	%r8d, %r9d
	leaq	-256(%rbp), %r10
	leaq	-280(%rbp), %r11
	leaq	-416(%rbp), %rbx
	movq	%rsi, -400(%rbp)
	movq	%rdx, -408(%rbp)
	movb	$0, -409(%rbp)
	movq	-408(%rbp), %rdx
	movq	%rdx, -392(%rbp)
	movq	-392(%rbp), %rdx
	movq	%rdx, -376(%rbp)
	movq	-376(%rbp), %rdx
	movq	%rdx, -368(%rbp)
	movq	-368(%rbp), %rdx
	movq	%rdx, -360(%rbp)
	movq	%rdi, -344(%rbp)
	movq	%rbx, -352(%rbp)
	movq	-344(%rbp), %rdx
	movq	-352(%rbp), %rsi
	movq	%rdx, -320(%rbp)
	movq	%rsi, -328(%rbp)
	movq	-320(%rbp), %rdx
	movq	%rdx, -312(%rbp)
	movq	-312(%rbp), %rsi
	movq	%rsi, -288(%rbp)
	movq	-288(%rbp), %rsi
	movq	%r11, -272(%rbp)
	movq	%rsi, -264(%rbp)
	movq	-264(%rbp), %rsi
	movq	%r10, -248(%rbp)
	movq	%rdi, -464(%rbp)        ## 8-byte Spill
	movq	%rsi, %rdi
	movl	%ecx, %esi
	movq	%rdx, -472(%rbp)        ## 8-byte Spill
	movq	%r9, %rdx
	movq	%rax, -480(%rbp)        ## 8-byte Spill
	callq	_memset
	movq	-472(%rbp), %rax        ## 8-byte Reload
	movq	%rax, -224(%rbp)
	movq	-224(%rbp), %rdx
	movq	%rdx, -216(%rbp)
	movq	-216(%rbp), %rdx
	movq	%rdx, -208(%rbp)
	movq	-208(%rbp), %rdx
	movq	%rdx, -232(%rbp)
	movl	$0, -236(%rbp)
LBB13_1:                                ## =>This Inner Loop Header: Depth=1
	cmpl	$3, -236(%rbp)
	jae	LBB13_3
## BB#2:                                ##   in Loop: Header=BB13_1 Depth=1
	movl	-236(%rbp), %eax
	movl	%eax, %ecx
	movq	-232(%rbp), %rdx
	movq	$0, (%rdx,%rcx,8)
	movl	-236(%rbp), %eax
	addl	$1, %eax
	movl	%eax, -236(%rbp)
	jmp	LBB13_1
LBB13_3:
	movq	-400(%rbp), %rdi
Ltmp244:
	callq	__ZNSt3__111char_traitsIcE6lengthEPKc
Ltmp245:
	movq	%rax, -488(%rbp)        ## 8-byte Spill
	jmp	LBB13_4
LBB13_4:
	movq	-488(%rbp), %rax        ## 8-byte Reload
	movq	%rax, -432(%rbp)
	movq	-408(%rbp), %rcx
	movq	%rcx, -88(%rbp)
	movq	-88(%rbp), %rcx
	movq	%rcx, -80(%rbp)
	movq	-80(%rbp), %rdx
	movq	%rdx, -72(%rbp)
	movq	-72(%rbp), %rdx
	movq	%rdx, -64(%rbp)
	movq	-64(%rbp), %rdx
	movzbl	(%rdx), %esi
	andl	$1, %esi
	cmpl	$0, %esi
	movq	%rcx, -496(%rbp)        ## 8-byte Spill
	je	LBB13_6
## BB#5:
	movq	-496(%rbp), %rax        ## 8-byte Reload
	movq	%rax, -32(%rbp)
	movq	-32(%rbp), %rcx
	movq	%rcx, -24(%rbp)
	movq	-24(%rbp), %rcx
	movq	%rcx, -16(%rbp)
	movq	-16(%rbp), %rcx
	movq	8(%rcx), %rcx
	movq	%rcx, -504(%rbp)        ## 8-byte Spill
	jmp	LBB13_7
LBB13_6:
	movq	-496(%rbp), %rax        ## 8-byte Reload
	movq	%rax, -56(%rbp)
	movq	-56(%rbp), %rcx
	movq	%rcx, -48(%rbp)
	movq	-48(%rbp), %rcx
	movq	%rcx, -40(%rbp)
	movq	-40(%rbp), %rcx
	movzbl	(%rcx), %edx
	sarl	$1, %edx
	movslq	%edx, %rcx
	movq	%rcx, -504(%rbp)        ## 8-byte Spill
LBB13_7:
	movq	-504(%rbp), %rax        ## 8-byte Reload
	movq	%rax, -456(%rbp)
	movq	-400(%rbp), %rsi
	movq	-432(%rbp), %rcx
	movq	%rcx, %rdx
	addq	%rax, %rdx
Ltmp246:
	movq	-464(%rbp), %rdi        ## 8-byte Reload
	movq	%rdx, -512(%rbp)        ## 8-byte Spill
	movq	%rcx, %rdx
	movq	-512(%rbp), %rcx        ## 8-byte Reload
	callq	__ZNSt3__112basic_stringIcNS_11char_traitsIcEENS_9allocatorIcEEE6__initEPKcmm
Ltmp247:
	jmp	LBB13_8
LBB13_8:
	movq	-408(%rbp), %rax
	movq	%rax, -200(%rbp)
	movq	-200(%rbp), %rax
	movq	%rax, -192(%rbp)
	movq	-192(%rbp), %rax
	movq	%rax, -184(%rbp)
	movq	-184(%rbp), %rcx
	movq	%rcx, -176(%rbp)
	movq	-176(%rbp), %rcx
	movq	%rcx, -168(%rbp)
	movq	-168(%rbp), %rcx
	movzbl	(%rcx), %edx
	andl	$1, %edx
	cmpl	$0, %edx
	movq	%rax, -520(%rbp)        ## 8-byte Spill
	je	LBB13_10
## BB#9:
	movq	-520(%rbp), %rax        ## 8-byte Reload
	movq	%rax, -120(%rbp)
	movq	-120(%rbp), %rcx
	movq	%rcx, -112(%rbp)
	movq	-112(%rbp), %rcx
	movq	%rcx, -104(%rbp)
	movq	-104(%rbp), %rcx
	movq	16(%rcx), %rcx
	movq	%rcx, -528(%rbp)        ## 8-byte Spill
	jmp	LBB13_11
LBB13_10:
	movq	-520(%rbp), %rax        ## 8-byte Reload
	movq	%rax, -160(%rbp)
	movq	-160(%rbp), %rcx
	movq	%rcx, -152(%rbp)
	movq	-152(%rbp), %rcx
	movq	%rcx, -144(%rbp)
	movq	-144(%rbp), %rcx
	addq	$1, %rcx
	movq	%rcx, -136(%rbp)
	movq	-136(%rbp), %rcx
	movq	%rcx, -128(%rbp)
	movq	-128(%rbp), %rcx
	movq	%rcx, -528(%rbp)        ## 8-byte Spill
LBB13_11:
	movq	-528(%rbp), %rax        ## 8-byte Reload
	movq	%rax, -96(%rbp)
	movq	-456(%rbp), %rdx
Ltmp248:
	movq	-464(%rbp), %rdi        ## 8-byte Reload
	movq	%rax, %rsi
	callq	__ZNSt3__112basic_stringIcNS_11char_traitsIcEENS_9allocatorIcEEE6appendEPKcm
Ltmp249:
	movq	%rax, -536(%rbp)        ## 8-byte Spill
	jmp	LBB13_12
LBB13_12:
	movb	$1, -409(%rbp)
	testb	$1, -409(%rbp)
	jne	LBB13_15
	jmp	LBB13_14
LBB13_13:
Ltmp250:
	movl	%edx, %ecx
	movq	%rax, -440(%rbp)
	movl	%ecx, -444(%rbp)
Ltmp251:
	movq	-464(%rbp), %rdi        ## 8-byte Reload
	callq	__ZNSt3__112basic_stringIcNS_11char_traitsIcEENS_9allocatorIcEEED1Ev
Ltmp252:
	jmp	LBB13_16
LBB13_14:
	movq	-464(%rbp), %rdi        ## 8-byte Reload
	callq	__ZNSt3__112basic_stringIcNS_11char_traitsIcEENS_9allocatorIcEEED1Ev
LBB13_15:
	movq	-480(%rbp), %rax        ## 8-byte Reload
	addq	$536, %rsp              ## imm = 0x218
	popq	%rbx
	popq	%rbp
	retq
LBB13_16:
	jmp	LBB13_17
LBB13_17:
	movq	-440(%rbp), %rdi
	callq	__Unwind_Resume
LBB13_18:
Ltmp253:
	movl	%edx, %ecx
	movq	%rax, %rdi
	movl	%ecx, -540(%rbp)        ## 4-byte Spill
	callq	___clang_call_terminate
Lfunc_end5:
	.cfi_endproc
	.section	__TEXT,__gcc_except_tab
	.align	2
GCC_except_table13:
Lexception5:
	.byte	255                     ## @LPStart Encoding = omit
	.byte	155                     ## @TType Encoding = indirect pcrel sdata4
	.asciz	"\274"                  ## @TType base offset
	.byte	3                       ## Call site Encoding = udata4
	.byte	52                      ## Call site table length
Lset214 = Lfunc_begin5-Lfunc_begin5     ## >> Call Site 1 <<
	.long	Lset214
Lset215 = Ltmp244-Lfunc_begin5          ##   Call between Lfunc_begin5 and Ltmp244
	.long	Lset215
	.long	0                       ##     has no landing pad
	.byte	0                       ##   On action: cleanup
Lset216 = Ltmp244-Lfunc_begin5          ## >> Call Site 2 <<
	.long	Lset216
Lset217 = Ltmp249-Ltmp244               ##   Call between Ltmp244 and Ltmp249
	.long	Lset217
Lset218 = Ltmp250-Lfunc_begin5          ##     jumps to Ltmp250
	.long	Lset218
	.byte	0                       ##   On action: cleanup
Lset219 = Ltmp251-Lfunc_begin5          ## >> Call Site 3 <<
	.long	Lset219
Lset220 = Ltmp252-Ltmp251               ##   Call between Ltmp251 and Ltmp252
	.long	Lset220
Lset221 = Ltmp253-Lfunc_begin5          ##     jumps to Ltmp253
	.long	Lset221
	.byte	1                       ##   On action: 1
Lset222 = Ltmp252-Lfunc_begin5          ## >> Call Site 4 <<
	.long	Lset222
Lset223 = Lfunc_end5-Ltmp252            ##   Call between Ltmp252 and Lfunc_end5
	.long	Lset223
	.long	0                       ##     has no landing pad
	.byte	0                       ##   On action: cleanup
	.byte	1                       ## >> Action Record 1 <<
                                        ##   Catch TypeInfo 1
	.byte	0                       ##   No further actions
                                        ## >> Catch TypeInfos <<
	.long	0                       ## TypeInfo 1
	.align	2

	.section	__TEXT,__text,regular,pure_instructions
	.globl	__ZN9ZPEParser10GetVersionEv
	.weak_def_can_be_hidden	__ZN9ZPEParser10GetVersionEv
	.align	4, 0x90
__ZN9ZPEParser10GetVersionEv:           ## @_ZN9ZPEParser10GetVersionEv
	.cfi_startproc
## BB#0:
	pushq	%rbp
Ltmp258:
	.cfi_def_cfa_offset 16
Ltmp259:
	.cfi_offset %rbp, -16
	movq	%rsp, %rbp
Ltmp260:
	.cfi_def_cfa_register %rbp
	subq	$96, %rsp
	movq	%rdi, %rax
	xorl	%esi, %esi
	movl	$24, %ecx
	movl	%ecx, %edx
	leaq	L_.str.22(%rip), %r8
	movq	%rdi, -56(%rbp)
	movq	%r8, -64(%rbp)
	movq	-56(%rbp), %rdi
	movq	-64(%rbp), %r8
	movq	%rdi, -40(%rbp)
	movq	%r8, -48(%rbp)
	movq	-40(%rbp), %rdi
	movq	%rdi, -32(%rbp)
	movq	-32(%rbp), %r8
	movq	%r8, -24(%rbp)
	movq	-24(%rbp), %r8
	movq	%r8, -16(%rbp)
	movq	-16(%rbp), %r8
	movq	%r8, %r9
	movq	%r9, -8(%rbp)
	movq	%rdi, -72(%rbp)         ## 8-byte Spill
	movq	%r8, %rdi
	movq	%rax, -80(%rbp)         ## 8-byte Spill
	callq	_memset
	movq	-48(%rbp), %rsi
	movq	-48(%rbp), %rdi
	movq	%rsi, -88(%rbp)         ## 8-byte Spill
	callq	__ZNSt3__111char_traitsIcE6lengthEPKc
	movq	-72(%rbp), %rdi         ## 8-byte Reload
	movq	-88(%rbp), %rsi         ## 8-byte Reload
	movq	%rax, %rdx
	callq	__ZNSt3__112basic_stringIcNS_11char_traitsIcEENS_9allocatorIcEEE6__initEPKcm
	movq	-80(%rbp), %rax         ## 8-byte Reload
	addq	$96, %rsp
	popq	%rbp
	retq
	.cfi_endproc

	.globl	__ZN8ZPEValueC1Ev
	.weak_def_can_be_hidden	__ZN8ZPEValueC1Ev
	.align	4, 0x90
__ZN8ZPEValueC1Ev:                      ## @_ZN8ZPEValueC1Ev
	.cfi_startproc
## BB#0:
	pushq	%rbp
Ltmp261:
	.cfi_def_cfa_offset 16
Ltmp262:
	.cfi_offset %rbp, -16
	movq	%rsp, %rbp
Ltmp263:
	.cfi_def_cfa_register %rbp
	subq	$16, %rsp
	movq	%rdi, -8(%rbp)
	movq	-8(%rbp), %rdi
	callq	__ZN8ZPEValueC2Ev
	addq	$16, %rsp
	popq	%rbp
	retq
	.cfi_endproc

	.globl	__ZN7ZPEListC1Ev
	.weak_def_can_be_hidden	__ZN7ZPEListC1Ev
	.align	4, 0x90
__ZN7ZPEListC1Ev:                       ## @_ZN7ZPEListC1Ev
	.cfi_startproc
## BB#0:
	pushq	%rbp
Ltmp264:
	.cfi_def_cfa_offset 16
Ltmp265:
	.cfi_offset %rbp, -16
	movq	%rsp, %rbp
Ltmp266:
	.cfi_def_cfa_register %rbp
	subq	$16, %rsp
	movq	%rdi, -8(%rbp)
	movq	-8(%rbp), %rdi
	callq	__ZN7ZPEListC2Ev
	addq	$16, %rsp
	popq	%rbp
	retq
	.cfi_endproc

	.globl	__ZN8ZPEValue8setValueEPv
	.weak_def_can_be_hidden	__ZN8ZPEValue8setValueEPv
	.align	4, 0x90
__ZN8ZPEValue8setValueEPv:              ## @_ZN8ZPEValue8setValueEPv
	.cfi_startproc
## BB#0:
	pushq	%rbp
Ltmp267:
	.cfi_def_cfa_offset 16
Ltmp268:
	.cfi_offset %rbp, -16
	movq	%rsp, %rbp
Ltmp269:
	.cfi_def_cfa_register %rbp
	movq	%rdi, -8(%rbp)
	movq	%rsi, -16(%rbp)
	movq	-8(%rbp), %rsi
	movq	-16(%rbp), %rdi
	movq	%rdi, 40(%rsi)
	movl	$3, (%rsi)
	popq	%rbp
	retq
	.cfi_endproc

	.align	4, 0x90
__ZL6stdOuti:                           ## @_ZL6stdOuti
	.cfi_startproc
## BB#0:
	pushq	%rbp
Ltmp270:
	.cfi_def_cfa_offset 16
Ltmp271:
	.cfi_offset %rbp, -16
	movq	%rsp, %rbp
Ltmp272:
	.cfi_def_cfa_register %rbp
	subq	$32, %rsp
	movq	__ZNSt3__14coutE@GOTPCREL(%rip), %rax
	movl	%edi, -20(%rbp)
	movl	-20(%rbp), %esi
	movq	%rax, %rdi
	callq	__ZNSt3__113basic_ostreamIcNS_11char_traitsIcEEElsEi
	leaq	__ZNSt3__14endlIcNS_11char_traitsIcEEEERNS_13basic_ostreamIT_T0_EES7_(%rip), %rdi
	movq	%rax, -8(%rbp)
	movq	%rdi, -16(%rbp)
	movq	-8(%rbp), %rdi
	callq	*-16(%rbp)
	movq	%rax, -32(%rbp)         ## 8-byte Spill
	addq	$32, %rsp
	popq	%rbp
	retq
	.cfi_endproc

	.globl	__ZN8ZPEValue7getTypeEv
	.weak_def_can_be_hidden	__ZN8ZPEValue7getTypeEv
	.align	4, 0x90
__ZN8ZPEValue7getTypeEv:                ## @_ZN8ZPEValue7getTypeEv
	.cfi_startproc
## BB#0:
	pushq	%rbp
Ltmp273:
	.cfi_def_cfa_offset 16
Ltmp274:
	.cfi_offset %rbp, -16
	movq	%rsp, %rbp
Ltmp275:
	.cfi_def_cfa_register %rbp
	movq	%rdi, -8(%rbp)
	movq	-8(%rbp), %rdi
	movl	(%rdi), %eax
	popq	%rbp
	retq
	.cfi_endproc

	.globl	__ZN8ZPEValue8setValueENSt3__112basic_stringIcNS0_11char_traitsIcEENS0_9allocatorIcEEEE
	.weak_def_can_be_hidden	__ZN8ZPEValue8setValueENSt3__112basic_stringIcNS0_11char_traitsIcEENS0_9allocatorIcEEEE
	.align	4, 0x90
__ZN8ZPEValue8setValueENSt3__112basic_stringIcNS0_11char_traitsIcEENS0_9allocatorIcEEEE: ## @_ZN8ZPEValue8setValueENSt3__112basic_stringIcNS0_11char_traitsIcEENS0_9allocatorIcEEEE
	.cfi_startproc
## BB#0:
	pushq	%rbp
Ltmp276:
	.cfi_def_cfa_offset 16
Ltmp277:
	.cfi_offset %rbp, -16
	movq	%rsp, %rbp
Ltmp278:
	.cfi_def_cfa_register %rbp
	subq	$32, %rsp
	movq	%rdi, -8(%rbp)
	movq	-8(%rbp), %rdi
	movq	%rdi, %rax
	addq	$8, %rax
	movq	%rdi, -16(%rbp)         ## 8-byte Spill
	movq	%rax, %rdi
	callq	__ZNSt3__112basic_stringIcNS_11char_traitsIcEENS_9allocatorIcEEEaSERKS5_
	movq	-16(%rbp), %rsi         ## 8-byte Reload
	movl	$2, (%rsi)
	movq	%rax, -24(%rbp)         ## 8-byte Spill
	addq	$32, %rsp
	popq	%rbp
	retq
	.cfi_endproc

	.globl	__ZNSt3__1lsIcNS_11char_traitsIcEENS_9allocatorIcEEEERNS_13basic_ostreamIT_T0_EES9_RKNS_12basic_stringIS6_S7_T1_EE
	.weak_def_can_be_hidden	__ZNSt3__1lsIcNS_11char_traitsIcEENS_9allocatorIcEEEERNS_13basic_ostreamIT_T0_EES9_RKNS_12basic_stringIS6_S7_T1_EE
	.align	4, 0x90
__ZNSt3__1lsIcNS_11char_traitsIcEENS_9allocatorIcEEEERNS_13basic_ostreamIT_T0_EES9_RKNS_12basic_stringIS6_S7_T1_EE: ## @_ZNSt3__1lsIcNS_11char_traitsIcEENS_9allocatorIcEEEERNS_13basic_ostreamIT_T0_EES9_RKNS_12basic_stringIS6_S7_T1_EE
	.cfi_startproc
## BB#0:
	pushq	%rbp
Ltmp279:
	.cfi_def_cfa_offset 16
Ltmp280:
	.cfi_offset %rbp, -16
	movq	%rsp, %rbp
Ltmp281:
	.cfi_def_cfa_register %rbp
	subq	$256, %rsp              ## imm = 0x100
	movq	%rdi, -200(%rbp)
	movq	%rsi, -208(%rbp)
	movq	-200(%rbp), %rdi
	movq	-208(%rbp), %rsi
	movq	%rsi, -192(%rbp)
	movq	-192(%rbp), %rsi
	movq	%rsi, -184(%rbp)
	movq	-184(%rbp), %rsi
	movq	%rsi, -176(%rbp)
	movq	-176(%rbp), %rax
	movq	%rax, -168(%rbp)
	movq	-168(%rbp), %rax
	movq	%rax, -160(%rbp)
	movq	-160(%rbp), %rax
	movzbl	(%rax), %ecx
	andl	$1, %ecx
	cmpl	$0, %ecx
	movq	%rdi, -216(%rbp)        ## 8-byte Spill
	movq	%rsi, -224(%rbp)        ## 8-byte Spill
	je	LBB21_2
## BB#1:
	movq	-224(%rbp), %rax        ## 8-byte Reload
	movq	%rax, -112(%rbp)
	movq	-112(%rbp), %rcx
	movq	%rcx, -104(%rbp)
	movq	-104(%rbp), %rcx
	movq	%rcx, -96(%rbp)
	movq	-96(%rbp), %rcx
	movq	16(%rcx), %rcx
	movq	%rcx, -232(%rbp)        ## 8-byte Spill
	jmp	LBB21_3
LBB21_2:
	movq	-224(%rbp), %rax        ## 8-byte Reload
	movq	%rax, -152(%rbp)
	movq	-152(%rbp), %rcx
	movq	%rcx, -144(%rbp)
	movq	-144(%rbp), %rcx
	movq	%rcx, -136(%rbp)
	movq	-136(%rbp), %rcx
	addq	$1, %rcx
	movq	%rcx, -128(%rbp)
	movq	-128(%rbp), %rcx
	movq	%rcx, -120(%rbp)
	movq	-120(%rbp), %rcx
	movq	%rcx, -232(%rbp)        ## 8-byte Spill
LBB21_3:
	movq	-232(%rbp), %rax        ## 8-byte Reload
	movq	%rax, -88(%rbp)
	movq	-88(%rbp), %rsi
	movq	-208(%rbp), %rax
	movq	%rax, -80(%rbp)
	movq	-80(%rbp), %rax
	movq	%rax, -72(%rbp)
	movq	-72(%rbp), %rcx
	movq	%rcx, -64(%rbp)
	movq	-64(%rbp), %rcx
	movq	%rcx, -56(%rbp)
	movq	-56(%rbp), %rcx
	movzbl	(%rcx), %edx
	andl	$1, %edx
	cmpl	$0, %edx
	movq	%rsi, -240(%rbp)        ## 8-byte Spill
	movq	%rax, -248(%rbp)        ## 8-byte Spill
	je	LBB21_5
## BB#4:
	movq	-248(%rbp), %rax        ## 8-byte Reload
	movq	%rax, -24(%rbp)
	movq	-24(%rbp), %rcx
	movq	%rcx, -16(%rbp)
	movq	-16(%rbp), %rcx
	movq	%rcx, -8(%rbp)
	movq	-8(%rbp), %rcx
	movq	8(%rcx), %rcx
	movq	%rcx, -256(%rbp)        ## 8-byte Spill
	jmp	LBB21_6
LBB21_5:
	movq	-248(%rbp), %rax        ## 8-byte Reload
	movq	%rax, -48(%rbp)
	movq	-48(%rbp), %rcx
	movq	%rcx, -40(%rbp)
	movq	-40(%rbp), %rcx
	movq	%rcx, -32(%rbp)
	movq	-32(%rbp), %rcx
	movzbl	(%rcx), %edx
	sarl	$1, %edx
	movslq	%edx, %rcx
	movq	%rcx, -256(%rbp)        ## 8-byte Spill
LBB21_6:
	movq	-256(%rbp), %rax        ## 8-byte Reload
	movq	-216(%rbp), %rdi        ## 8-byte Reload
	movq	-240(%rbp), %rsi        ## 8-byte Reload
	movq	%rax, %rdx
	callq	__ZNSt3__124__put_character_sequenceIcNS_11char_traitsIcEEEERNS_13basic_ostreamIT_T0_EES7_PKS4_m
	addq	$256, %rsp              ## imm = 0x100
	popq	%rbp
	retq
	.cfi_endproc

	.globl	__ZNSt3__124__put_character_sequenceIcNS_11char_traitsIcEEEERNS_13basic_ostreamIT_T0_EES7_PKS4_m
	.weak_def_can_be_hidden	__ZNSt3__124__put_character_sequenceIcNS_11char_traitsIcEEEERNS_13basic_ostreamIT_T0_EES7_PKS4_m
	.align	4, 0x90
__ZNSt3__124__put_character_sequenceIcNS_11char_traitsIcEEEERNS_13basic_ostreamIT_T0_EES7_PKS4_m: ## @_ZNSt3__124__put_character_sequenceIcNS_11char_traitsIcEEEERNS_13basic_ostreamIT_T0_EES7_PKS4_m
Lfunc_begin6:
	.cfi_startproc
	.cfi_personality 155, ___gxx_personality_v0
	.cfi_lsda 16, Lexception6
## BB#0:
	pushq	%rbp
Ltmp312:
	.cfi_def_cfa_offset 16
Ltmp313:
	.cfi_offset %rbp, -16
	movq	%rsp, %rbp
Ltmp314:
	.cfi_def_cfa_register %rbp
	subq	$416, %rsp              ## imm = 0x1A0
	movq	%rdi, -200(%rbp)
	movq	%rsi, -208(%rbp)
	movq	%rdx, -216(%rbp)
	movq	-200(%rbp), %rsi
Ltmp282:
	leaq	-232(%rbp), %rdi
	callq	__ZNSt3__113basic_ostreamIcNS_11char_traitsIcEEE6sentryC1ERS3_
Ltmp283:
	jmp	LBB22_1
LBB22_1:
	leaq	-232(%rbp), %rax
	movq	%rax, -192(%rbp)
	movq	-192(%rbp), %rax
	movb	(%rax), %cl
	movb	%cl, -265(%rbp)         ## 1-byte Spill
## BB#2:
	movb	-265(%rbp), %al         ## 1-byte Reload
	testb	$1, %al
	jne	LBB22_3
	jmp	LBB22_26
LBB22_3:
	leaq	-256(%rbp), %rax
	movq	-200(%rbp), %rcx
	movq	%rax, -176(%rbp)
	movq	%rcx, -184(%rbp)
	movq	-176(%rbp), %rax
	movq	-184(%rbp), %rcx
	movq	%rax, -144(%rbp)
	movq	%rcx, -152(%rbp)
	movq	-144(%rbp), %rax
	movq	-152(%rbp), %rcx
	movq	(%rcx), %rdx
	movq	-24(%rdx), %rdx
	addq	%rdx, %rcx
	movq	%rcx, -136(%rbp)
	movq	-136(%rbp), %rcx
	movq	%rcx, -128(%rbp)
	movq	-128(%rbp), %rcx
	movq	40(%rcx), %rcx
	movq	%rcx, (%rax)
	movq	-208(%rbp), %rsi
	movq	-200(%rbp), %rax
	movq	(%rax), %rcx
	movq	-24(%rcx), %rcx
	addq	%rcx, %rax
	movq	%rax, -88(%rbp)
	movq	-88(%rbp), %rax
	movl	8(%rax), %edi
	movq	%rsi, -280(%rbp)        ## 8-byte Spill
	movl	%edi, -284(%rbp)        ## 4-byte Spill
## BB#4:
	movl	-284(%rbp), %eax        ## 4-byte Reload
	andl	$176, %eax
	cmpl	$32, %eax
	jne	LBB22_6
## BB#5:
	movq	-208(%rbp), %rax
	addq	-216(%rbp), %rax
	movq	%rax, -296(%rbp)        ## 8-byte Spill
	jmp	LBB22_7
LBB22_6:
	movq	-208(%rbp), %rax
	movq	%rax, -296(%rbp)        ## 8-byte Spill
LBB22_7:
	movq	-296(%rbp), %rax        ## 8-byte Reload
	movq	-208(%rbp), %rcx
	addq	-216(%rbp), %rcx
	movq	-200(%rbp), %rdx
	movq	(%rdx), %rsi
	movq	-24(%rsi), %rsi
	addq	%rsi, %rdx
	movq	-200(%rbp), %rsi
	movq	(%rsi), %rdi
	movq	-24(%rdi), %rdi
	addq	%rdi, %rsi
	movq	%rsi, -72(%rbp)
	movq	-72(%rbp), %rsi
	movq	%rax, -304(%rbp)        ## 8-byte Spill
	movq	%rcx, -312(%rbp)        ## 8-byte Spill
	movq	%rdx, -320(%rbp)        ## 8-byte Spill
	movq	%rsi, -328(%rbp)        ## 8-byte Spill
	callq	__ZNSt3__111char_traitsIcE3eofEv
	movq	-328(%rbp), %rcx        ## 8-byte Reload
	movl	144(%rcx), %esi
	movl	%eax, %edi
	callq	__ZNSt3__111char_traitsIcE11eq_int_typeEii
	testb	$1, %al
	jne	LBB22_8
	jmp	LBB22_16
LBB22_8:
	movq	-328(%rbp), %rax        ## 8-byte Reload
	movq	%rax, -32(%rbp)
	movb	$32, -33(%rbp)
	movq	-32(%rbp), %rsi
Ltmp284:
	leaq	-48(%rbp), %rdi
	callq	__ZNKSt3__18ios_base6getlocEv
Ltmp285:
	jmp	LBB22_9
LBB22_9:
	leaq	-48(%rbp), %rax
	movq	%rax, -24(%rbp)
Ltmp286:
	movq	__ZNSt3__15ctypeIcE2idE@GOTPCREL(%rip), %rsi
	movq	%rax, %rdi
	callq	__ZNKSt3__16locale9use_facetERNS0_2idE
Ltmp287:
	movq	%rax, -336(%rbp)        ## 8-byte Spill
	jmp	LBB22_10
LBB22_10:
	movb	-33(%rbp), %al
	movq	-336(%rbp), %rcx        ## 8-byte Reload
	movq	%rcx, -8(%rbp)
	movb	%al, -9(%rbp)
	movq	-8(%rbp), %rdx
	movq	(%rdx), %rsi
	movq	56(%rsi), %rsi
	movsbl	-9(%rbp), %edi
Ltmp288:
	movl	%edi, -340(%rbp)        ## 4-byte Spill
	movq	%rdx, %rdi
	movl	-340(%rbp), %r8d        ## 4-byte Reload
	movq	%rsi, -352(%rbp)        ## 8-byte Spill
	movl	%r8d, %esi
	movq	-352(%rbp), %rdx        ## 8-byte Reload
	callq	*%rdx
Ltmp289:
	movb	%al, -353(%rbp)         ## 1-byte Spill
	jmp	LBB22_14
LBB22_11:
Ltmp290:
	movl	%edx, %ecx
	movq	%rax, -56(%rbp)
	movl	%ecx, -60(%rbp)
Ltmp291:
	leaq	-48(%rbp), %rdi
	callq	__ZNSt3__16localeD1Ev
Ltmp292:
	jmp	LBB22_12
LBB22_12:
	movq	-56(%rbp), %rax
	movl	-60(%rbp), %ecx
	movq	%rax, -368(%rbp)        ## 8-byte Spill
	movl	%ecx, -372(%rbp)        ## 4-byte Spill
	jmp	LBB22_24
LBB22_13:
Ltmp293:
	movl	%edx, %ecx
	movq	%rax, %rdi
	movl	%ecx, -376(%rbp)        ## 4-byte Spill
	callq	___clang_call_terminate
LBB22_14:
Ltmp294:
	leaq	-48(%rbp), %rdi
	callq	__ZNSt3__16localeD1Ev
Ltmp295:
	jmp	LBB22_15
LBB22_15:
	movb	-353(%rbp), %al         ## 1-byte Reload
	movsbl	%al, %ecx
	movq	-328(%rbp), %rdx        ## 8-byte Reload
	movl	%ecx, 144(%rdx)
LBB22_16:
	movq	-328(%rbp), %rax        ## 8-byte Reload
	movl	144(%rax), %ecx
	movb	%cl, %dl
	movb	%dl, -377(%rbp)         ## 1-byte Spill
## BB#17:
	movq	-256(%rbp), %rdi
Ltmp296:
	movb	-377(%rbp), %al         ## 1-byte Reload
	movsbl	%al, %r9d
	movq	-280(%rbp), %rsi        ## 8-byte Reload
	movq	-304(%rbp), %rdx        ## 8-byte Reload
	movq	-312(%rbp), %rcx        ## 8-byte Reload
	movq	-320(%rbp), %r8         ## 8-byte Reload
	callq	__ZNSt3__116__pad_and_outputIcNS_11char_traitsIcEEEENS_19ostreambuf_iteratorIT_T0_EES6_PKS4_S8_S8_RNS_8ios_baseES4_
Ltmp297:
	movq	%rax, -392(%rbp)        ## 8-byte Spill
	jmp	LBB22_18
LBB22_18:
	leaq	-264(%rbp), %rax
	movq	-392(%rbp), %rcx        ## 8-byte Reload
	movq	%rcx, -264(%rbp)
	movq	%rax, -80(%rbp)
	movq	-80(%rbp), %rax
	cmpq	$0, (%rax)
	jne	LBB22_25
## BB#19:
	movq	-200(%rbp), %rax
	movq	(%rax), %rcx
	movq	-24(%rcx), %rcx
	addq	%rcx, %rax
	movq	%rax, -112(%rbp)
	movl	$5, -116(%rbp)
	movq	-112(%rbp), %rax
	movq	%rax, -96(%rbp)
	movl	$5, -100(%rbp)
	movq	-96(%rbp), %rax
	movl	32(%rax), %edx
	orl	$5, %edx
Ltmp298:
	movq	%rax, %rdi
	movl	%edx, %esi
	callq	__ZNSt3__18ios_base5clearEj
Ltmp299:
	jmp	LBB22_20
LBB22_20:
	jmp	LBB22_21
LBB22_21:
	jmp	LBB22_25
LBB22_22:
Ltmp305:
	movl	%edx, %ecx
	movq	%rax, -240(%rbp)
	movl	%ecx, -244(%rbp)
	jmp	LBB22_29
LBB22_23:
Ltmp300:
	movl	%edx, %ecx
	movq	%rax, -368(%rbp)        ## 8-byte Spill
	movl	%ecx, -372(%rbp)        ## 4-byte Spill
	jmp	LBB22_24
LBB22_24:
	movl	-372(%rbp), %eax        ## 4-byte Reload
	movq	-368(%rbp), %rcx        ## 8-byte Reload
	movq	%rcx, -240(%rbp)
	movl	%eax, -244(%rbp)
Ltmp301:
	leaq	-232(%rbp), %rdi
	callq	__ZNSt3__113basic_ostreamIcNS_11char_traitsIcEEE6sentryD1Ev
Ltmp302:
	jmp	LBB22_28
LBB22_25:
	jmp	LBB22_26
LBB22_26:
Ltmp303:
	leaq	-232(%rbp), %rdi
	callq	__ZNSt3__113basic_ostreamIcNS_11char_traitsIcEEE6sentryD1Ev
Ltmp304:
	jmp	LBB22_27
LBB22_27:
	jmp	LBB22_31
LBB22_28:
	jmp	LBB22_29
LBB22_29:
	movq	-240(%rbp), %rdi
	callq	___cxa_begin_catch
	movq	-200(%rbp), %rdi
	movq	(%rdi), %rcx
	movq	-24(%rcx), %rcx
	addq	%rcx, %rdi
Ltmp306:
	movq	%rax, -400(%rbp)        ## 8-byte Spill
	callq	__ZNSt3__18ios_base33__set_badbit_and_consider_rethrowEv
Ltmp307:
	jmp	LBB22_30
LBB22_30:
	callq	___cxa_end_catch
LBB22_31:
	movq	-200(%rbp), %rax
	addq	$416, %rsp              ## imm = 0x1A0
	popq	%rbp
	retq
LBB22_32:
Ltmp308:
	movl	%edx, %ecx
	movq	%rax, -240(%rbp)
	movl	%ecx, -244(%rbp)
Ltmp309:
	callq	___cxa_end_catch
Ltmp310:
	jmp	LBB22_33
LBB22_33:
	jmp	LBB22_34
LBB22_34:
	movq	-240(%rbp), %rdi
	callq	__Unwind_Resume
LBB22_35:
Ltmp311:
	movl	%edx, %ecx
	movq	%rax, %rdi
	movl	%ecx, -404(%rbp)        ## 4-byte Spill
	callq	___clang_call_terminate
Lfunc_end6:
	.cfi_endproc
	.section	__TEXT,__gcc_except_tab
	.align	2
GCC_except_table22:
Lexception6:
	.byte	255                     ## @LPStart Encoding = omit
	.byte	155                     ## @TType Encoding = indirect pcrel sdata4
	.asciz	"\253\201"              ## @TType base offset
	.byte	3                       ## Call site Encoding = udata4
	.ascii	"\234\001"              ## Call site table length
Lset224 = Ltmp282-Lfunc_begin6          ## >> Call Site 1 <<
	.long	Lset224
Lset225 = Ltmp283-Ltmp282               ##   Call between Ltmp282 and Ltmp283
	.long	Lset225
Lset226 = Ltmp305-Lfunc_begin6          ##     jumps to Ltmp305
	.long	Lset226
	.byte	5                       ##   On action: 3
Lset227 = Ltmp284-Lfunc_begin6          ## >> Call Site 2 <<
	.long	Lset227
Lset228 = Ltmp285-Ltmp284               ##   Call between Ltmp284 and Ltmp285
	.long	Lset228
Lset229 = Ltmp300-Lfunc_begin6          ##     jumps to Ltmp300
	.long	Lset229
	.byte	5                       ##   On action: 3
Lset230 = Ltmp286-Lfunc_begin6          ## >> Call Site 3 <<
	.long	Lset230
Lset231 = Ltmp289-Ltmp286               ##   Call between Ltmp286 and Ltmp289
	.long	Lset231
Lset232 = Ltmp290-Lfunc_begin6          ##     jumps to Ltmp290
	.long	Lset232
	.byte	3                       ##   On action: 2
Lset233 = Ltmp291-Lfunc_begin6          ## >> Call Site 4 <<
	.long	Lset233
Lset234 = Ltmp292-Ltmp291               ##   Call between Ltmp291 and Ltmp292
	.long	Lset234
Lset235 = Ltmp293-Lfunc_begin6          ##     jumps to Ltmp293
	.long	Lset235
	.byte	7                       ##   On action: 4
Lset236 = Ltmp294-Lfunc_begin6          ## >> Call Site 5 <<
	.long	Lset236
Lset237 = Ltmp299-Ltmp294               ##   Call between Ltmp294 and Ltmp299
	.long	Lset237
Lset238 = Ltmp300-Lfunc_begin6          ##     jumps to Ltmp300
	.long	Lset238
	.byte	5                       ##   On action: 3
Lset239 = Ltmp301-Lfunc_begin6          ## >> Call Site 6 <<
	.long	Lset239
Lset240 = Ltmp302-Ltmp301               ##   Call between Ltmp301 and Ltmp302
	.long	Lset240
Lset241 = Ltmp311-Lfunc_begin6          ##     jumps to Ltmp311
	.long	Lset241
	.byte	5                       ##   On action: 3
Lset242 = Ltmp303-Lfunc_begin6          ## >> Call Site 7 <<
	.long	Lset242
Lset243 = Ltmp304-Ltmp303               ##   Call between Ltmp303 and Ltmp304
	.long	Lset243
Lset244 = Ltmp305-Lfunc_begin6          ##     jumps to Ltmp305
	.long	Lset244
	.byte	5                       ##   On action: 3
Lset245 = Ltmp304-Lfunc_begin6          ## >> Call Site 8 <<
	.long	Lset245
Lset246 = Ltmp306-Ltmp304               ##   Call between Ltmp304 and Ltmp306
	.long	Lset246
	.long	0                       ##     has no landing pad
	.byte	0                       ##   On action: cleanup
Lset247 = Ltmp306-Lfunc_begin6          ## >> Call Site 9 <<
	.long	Lset247
Lset248 = Ltmp307-Ltmp306               ##   Call between Ltmp306 and Ltmp307
	.long	Lset248
Lset249 = Ltmp308-Lfunc_begin6          ##     jumps to Ltmp308
	.long	Lset249
	.byte	0                       ##   On action: cleanup
Lset250 = Ltmp307-Lfunc_begin6          ## >> Call Site 10 <<
	.long	Lset250
Lset251 = Ltmp309-Ltmp307               ##   Call between Ltmp307 and Ltmp309
	.long	Lset251
	.long	0                       ##     has no landing pad
	.byte	0                       ##   On action: cleanup
Lset252 = Ltmp309-Lfunc_begin6          ## >> Call Site 11 <<
	.long	Lset252
Lset253 = Ltmp310-Ltmp309               ##   Call between Ltmp309 and Ltmp310
	.long	Lset253
Lset254 = Ltmp311-Lfunc_begin6          ##     jumps to Ltmp311
	.long	Lset254
	.byte	5                       ##   On action: 3
Lset255 = Ltmp310-Lfunc_begin6          ## >> Call Site 12 <<
	.long	Lset255
Lset256 = Lfunc_end6-Ltmp310            ##   Call between Ltmp310 and Lfunc_end6
	.long	Lset256
	.long	0                       ##     has no landing pad
	.byte	0                       ##   On action: cleanup
	.byte	0                       ## >> Action Record 1 <<
                                        ##   Cleanup
	.byte	0                       ##   No further actions
	.byte	1                       ## >> Action Record 2 <<
                                        ##   Catch TypeInfo 1
	.byte	125                     ##   Continue to action 1
	.byte	1                       ## >> Action Record 3 <<
                                        ##   Catch TypeInfo 1
	.byte	0                       ##   No further actions
	.byte	1                       ## >> Action Record 4 <<
                                        ##   Catch TypeInfo 1
	.byte	125                     ##   Continue to action 3
                                        ## >> Catch TypeInfos <<
	.long	0                       ## TypeInfo 1
	.align	2

	.section	__TEXT,__text,regular,pure_instructions
	.private_extern	__ZNSt3__116__pad_and_outputIcNS_11char_traitsIcEEEENS_19ostreambuf_iteratorIT_T0_EES6_PKS4_S8_S8_RNS_8ios_baseES4_
	.globl	__ZNSt3__116__pad_and_outputIcNS_11char_traitsIcEEEENS_19ostreambuf_iteratorIT_T0_EES6_PKS4_S8_S8_RNS_8ios_baseES4_
	.weak_def_can_be_hidden	__ZNSt3__116__pad_and_outputIcNS_11char_traitsIcEEEENS_19ostreambuf_iteratorIT_T0_EES6_PKS4_S8_S8_RNS_8ios_baseES4_
	.align	4, 0x90
__ZNSt3__116__pad_and_outputIcNS_11char_traitsIcEEEENS_19ostreambuf_iteratorIT_T0_EES6_PKS4_S8_S8_RNS_8ios_baseES4_: ## @_ZNSt3__116__pad_and_outputIcNS_11char_traitsIcEEEENS_19ostreambuf_iteratorIT_T0_EES6_PKS4_S8_S8_RNS_8ios_baseES4_
Lfunc_begin7:
	.cfi_startproc
	.cfi_personality 155, ___gxx_personality_v0
	.cfi_lsda 16, Lexception7
## BB#0:
	pushq	%rbp
Ltmp321:
	.cfi_def_cfa_offset 16
Ltmp322:
	.cfi_offset %rbp, -16
	movq	%rsp, %rbp
Ltmp323:
	.cfi_def_cfa_register %rbp
	subq	$736, %rsp              ## imm = 0x2E0
	movb	%r9b, %al
	leaq	-552(%rbp), %r10
	leaq	-488(%rbp), %r11
	movq	%rdi, -504(%rbp)
	movq	%rsi, -512(%rbp)
	movq	%rdx, -520(%rbp)
	movq	%rcx, -528(%rbp)
	movq	%r8, -536(%rbp)
	movb	%al, -537(%rbp)
	movq	-504(%rbp), %rcx
	movq	%r11, -472(%rbp)
	movq	$-1, -480(%rbp)
	movq	-472(%rbp), %rdx
	movq	-480(%rbp), %rsi
	movq	%rdx, -456(%rbp)
	movq	%rsi, -464(%rbp)
	movq	-456(%rbp), %rdx
	movq	$0, (%rdx)
	movq	-488(%rbp), %rdx
	movq	%rdx, -552(%rbp)
	movq	%r10, -448(%rbp)
	cmpq	$0, %rcx
	jne	LBB23_2
## BB#1:
	movq	-504(%rbp), %rax
	movq	%rax, -496(%rbp)
	jmp	LBB23_29
LBB23_2:
	movq	-528(%rbp), %rax
	movq	-512(%rbp), %rcx
	subq	%rcx, %rax
	movq	%rax, -560(%rbp)
	movq	-536(%rbp), %rax
	movq	%rax, -344(%rbp)
	movq	-344(%rbp), %rax
	movq	24(%rax), %rax
	movq	%rax, -568(%rbp)
	movq	-568(%rbp), %rax
	cmpq	-560(%rbp), %rax
	jle	LBB23_4
## BB#3:
	movq	-560(%rbp), %rax
	movq	-568(%rbp), %rcx
	subq	%rax, %rcx
	movq	%rcx, -568(%rbp)
	jmp	LBB23_5
LBB23_4:
	movq	$0, -568(%rbp)
LBB23_5:
	movq	-520(%rbp), %rax
	movq	-512(%rbp), %rcx
	subq	%rcx, %rax
	movq	%rax, -576(%rbp)
	cmpq	$0, -576(%rbp)
	jle	LBB23_9
## BB#6:
	movq	-504(%rbp), %rax
	movq	-512(%rbp), %rcx
	movq	-576(%rbp), %rdx
	movq	%rax, -248(%rbp)
	movq	%rcx, -256(%rbp)
	movq	%rdx, -264(%rbp)
	movq	-248(%rbp), %rax
	movq	(%rax), %rcx
	movq	96(%rcx), %rcx
	movq	-256(%rbp), %rsi
	movq	-264(%rbp), %rdx
	movq	%rax, %rdi
	callq	*%rcx
	cmpq	-576(%rbp), %rax
	je	LBB23_8
## BB#7:
	leaq	-584(%rbp), %rax
	leaq	-240(%rbp), %rcx
	movq	%rcx, -224(%rbp)
	movq	$-1, -232(%rbp)
	movq	-224(%rbp), %rcx
	movq	-232(%rbp), %rdx
	movq	%rcx, -208(%rbp)
	movq	%rdx, -216(%rbp)
	movq	-208(%rbp), %rcx
	movq	$0, (%rcx)
	movq	-240(%rbp), %rcx
	movq	%rcx, -584(%rbp)
	movq	%rax, -8(%rbp)
	movq	$0, -504(%rbp)
	movq	-504(%rbp), %rax
	movq	%rax, -496(%rbp)
	jmp	LBB23_29
LBB23_8:
	jmp	LBB23_9
LBB23_9:
	cmpq	$0, -568(%rbp)
	jle	LBB23_24
## BB#10:
	xorl	%esi, %esi
	movl	$24, %eax
	movl	%eax, %edx
	leaq	-608(%rbp), %rcx
	movq	-568(%rbp), %rdi
	movb	-537(%rbp), %r8b
	movq	%rcx, -72(%rbp)
	movq	%rdi, -80(%rbp)
	movb	%r8b, -81(%rbp)
	movq	-72(%rbp), %rcx
	movq	-80(%rbp), %rdi
	movb	-81(%rbp), %r8b
	movq	%rcx, -48(%rbp)
	movq	%rdi, -56(%rbp)
	movb	%r8b, -57(%rbp)
	movq	-48(%rbp), %rcx
	movq	%rcx, -40(%rbp)
	movq	-40(%rbp), %rdi
	movq	%rdi, -32(%rbp)
	movq	-32(%rbp), %rdi
	movq	%rdi, -24(%rbp)
	movq	-24(%rbp), %rdi
	movq	%rdi, %r9
	movq	%r9, -16(%rbp)
	movq	%rcx, -656(%rbp)        ## 8-byte Spill
	callq	_memset
	movq	-56(%rbp), %rsi
	movq	-656(%rbp), %rdi        ## 8-byte Reload
	movsbl	-57(%rbp), %edx
	callq	__ZNSt3__112basic_stringIcNS_11char_traitsIcEENS_9allocatorIcEEE6__initEmc
	leaq	-608(%rbp), %rcx
	movq	-504(%rbp), %rsi
	movq	%rcx, -200(%rbp)
	movq	-200(%rbp), %rcx
	movq	%rcx, -192(%rbp)
	movq	-192(%rbp), %rcx
	movq	%rcx, -184(%rbp)
	movq	-184(%rbp), %rdi
	movq	%rdi, -176(%rbp)
	movq	-176(%rbp), %rdi
	movq	%rdi, -168(%rbp)
	movq	-168(%rbp), %rdi
	movzbl	(%rdi), %eax
	andl	$1, %eax
	cmpl	$0, %eax
	movq	%rsi, -664(%rbp)        ## 8-byte Spill
	movq	%rcx, -672(%rbp)        ## 8-byte Spill
	je	LBB23_12
## BB#11:
	movq	-672(%rbp), %rax        ## 8-byte Reload
	movq	%rax, -120(%rbp)
	movq	-120(%rbp), %rcx
	movq	%rcx, -112(%rbp)
	movq	-112(%rbp), %rcx
	movq	%rcx, -104(%rbp)
	movq	-104(%rbp), %rcx
	movq	16(%rcx), %rcx
	movq	%rcx, -680(%rbp)        ## 8-byte Spill
	jmp	LBB23_13
LBB23_12:
	movq	-672(%rbp), %rax        ## 8-byte Reload
	movq	%rax, -160(%rbp)
	movq	-160(%rbp), %rcx
	movq	%rcx, -152(%rbp)
	movq	-152(%rbp), %rcx
	movq	%rcx, -144(%rbp)
	movq	-144(%rbp), %rcx
	addq	$1, %rcx
	movq	%rcx, -136(%rbp)
	movq	-136(%rbp), %rcx
	movq	%rcx, -128(%rbp)
	movq	-128(%rbp), %rcx
	movq	%rcx, -680(%rbp)        ## 8-byte Spill
LBB23_13:
	movq	-680(%rbp), %rax        ## 8-byte Reload
	movq	%rax, -96(%rbp)
	movq	-568(%rbp), %rcx
	movq	-664(%rbp), %rdx        ## 8-byte Reload
	movq	%rdx, -272(%rbp)
	movq	%rax, -280(%rbp)
	movq	%rcx, -288(%rbp)
	movq	-272(%rbp), %rax
	movq	(%rax), %rsi
	movq	96(%rsi), %rsi
	movq	-280(%rbp), %rdi
Ltmp315:
	movq	%rdi, -688(%rbp)        ## 8-byte Spill
	movq	%rax, %rdi
	movq	-688(%rbp), %rax        ## 8-byte Reload
	movq	%rsi, -696(%rbp)        ## 8-byte Spill
	movq	%rax, %rsi
	movq	%rcx, %rdx
	movq	-696(%rbp), %rcx        ## 8-byte Reload
	callq	*%rcx
Ltmp316:
	movq	%rax, -704(%rbp)        ## 8-byte Spill
	jmp	LBB23_14
LBB23_14:
	jmp	LBB23_15
LBB23_15:
	movq	-704(%rbp), %rax        ## 8-byte Reload
	cmpq	-568(%rbp), %rax
	je	LBB23_20
## BB#16:
	leaq	-328(%rbp), %rax
	movq	%rax, -312(%rbp)
	movq	$-1, -320(%rbp)
	movq	-312(%rbp), %rax
	movq	-320(%rbp), %rcx
	movq	%rax, -296(%rbp)
	movq	%rcx, -304(%rbp)
	movq	-296(%rbp), %rax
	movq	$0, (%rax)
	movq	-328(%rbp), %rax
	movq	%rax, -712(%rbp)        ## 8-byte Spill
## BB#17:
	leaq	-632(%rbp), %rax
	movq	-712(%rbp), %rcx        ## 8-byte Reload
	movq	%rcx, -632(%rbp)
	movq	%rax, -336(%rbp)
## BB#18:
	movq	$0, -504(%rbp)
	movq	-504(%rbp), %rax
	movq	%rax, -496(%rbp)
	movl	$1, -636(%rbp)
	jmp	LBB23_21
LBB23_19:
Ltmp317:
	movl	%edx, %ecx
	movq	%rax, -616(%rbp)
	movl	%ecx, -620(%rbp)
Ltmp318:
	leaq	-608(%rbp), %rdi
	callq	__ZNSt3__112basic_stringIcNS_11char_traitsIcEENS_9allocatorIcEEED1Ev
Ltmp319:
	jmp	LBB23_23
LBB23_20:
	movl	$0, -636(%rbp)
LBB23_21:
	leaq	-608(%rbp), %rdi
	callq	__ZNSt3__112basic_stringIcNS_11char_traitsIcEENS_9allocatorIcEEED1Ev
	movl	-636(%rbp), %eax
	testl	%eax, %eax
	movl	%eax, -716(%rbp)        ## 4-byte Spill
	je	LBB23_22
	jmp	LBB23_33
LBB23_33:
	movl	-716(%rbp), %eax        ## 4-byte Reload
	subl	$1, %eax
	movl	%eax, -720(%rbp)        ## 4-byte Spill
	je	LBB23_29
	jmp	LBB23_32
LBB23_22:
	jmp	LBB23_24
LBB23_23:
	jmp	LBB23_30
LBB23_24:
	movq	-528(%rbp), %rax
	movq	-520(%rbp), %rcx
	subq	%rcx, %rax
	movq	%rax, -576(%rbp)
	cmpq	$0, -576(%rbp)
	jle	LBB23_28
## BB#25:
	movq	-504(%rbp), %rax
	movq	-520(%rbp), %rcx
	movq	-576(%rbp), %rdx
	movq	%rax, -352(%rbp)
	movq	%rcx, -360(%rbp)
	movq	%rdx, -368(%rbp)
	movq	-352(%rbp), %rax
	movq	(%rax), %rcx
	movq	96(%rcx), %rcx
	movq	-360(%rbp), %rsi
	movq	-368(%rbp), %rdx
	movq	%rax, %rdi
	callq	*%rcx
	cmpq	-576(%rbp), %rax
	je	LBB23_27
## BB#26:
	leaq	-648(%rbp), %rax
	leaq	-408(%rbp), %rcx
	movq	%rcx, -392(%rbp)
	movq	$-1, -400(%rbp)
	movq	-392(%rbp), %rcx
	movq	-400(%rbp), %rdx
	movq	%rcx, -376(%rbp)
	movq	%rdx, -384(%rbp)
	movq	-376(%rbp), %rcx
	movq	$0, (%rcx)
	movq	-408(%rbp), %rcx
	movq	%rcx, -648(%rbp)
	movq	%rax, -416(%rbp)
	movq	$0, -504(%rbp)
	movq	-504(%rbp), %rax
	movq	%rax, -496(%rbp)
	jmp	LBB23_29
LBB23_27:
	jmp	LBB23_28
LBB23_28:
	movq	-536(%rbp), %rax
	movq	%rax, -424(%rbp)
	movq	$0, -432(%rbp)
	movq	-424(%rbp), %rax
	movq	24(%rax), %rcx
	movq	%rcx, -440(%rbp)
	movq	-432(%rbp), %rcx
	movq	%rcx, 24(%rax)
	movq	-504(%rbp), %rax
	movq	%rax, -496(%rbp)
LBB23_29:
	movq	-496(%rbp), %rax
	addq	$736, %rsp              ## imm = 0x2E0
	popq	%rbp
	retq
LBB23_30:
	movq	-616(%rbp), %rdi
	callq	__Unwind_Resume
LBB23_31:
Ltmp320:
	movl	%edx, %ecx
	movq	%rax, %rdi
	movl	%ecx, -724(%rbp)        ## 4-byte Spill
	callq	___clang_call_terminate
LBB23_32:
Lfunc_end7:
	.cfi_endproc
	.section	__TEXT,__gcc_except_tab
	.align	2
GCC_except_table23:
Lexception7:
	.byte	255                     ## @LPStart Encoding = omit
	.byte	155                     ## @TType Encoding = indirect pcrel sdata4
	.asciz	"\274"                  ## @TType base offset
	.byte	3                       ## Call site Encoding = udata4
	.byte	52                      ## Call site table length
Lset257 = Lfunc_begin7-Lfunc_begin7     ## >> Call Site 1 <<
	.long	Lset257
Lset258 = Ltmp315-Lfunc_begin7          ##   Call between Lfunc_begin7 and Ltmp315
	.long	Lset258
	.long	0                       ##     has no landing pad
	.byte	0                       ##   On action: cleanup
Lset259 = Ltmp315-Lfunc_begin7          ## >> Call Site 2 <<
	.long	Lset259
Lset260 = Ltmp316-Ltmp315               ##   Call between Ltmp315 and Ltmp316
	.long	Lset260
Lset261 = Ltmp317-Lfunc_begin7          ##     jumps to Ltmp317
	.long	Lset261
	.byte	0                       ##   On action: cleanup
Lset262 = Ltmp318-Lfunc_begin7          ## >> Call Site 3 <<
	.long	Lset262
Lset263 = Ltmp319-Ltmp318               ##   Call between Ltmp318 and Ltmp319
	.long	Lset263
Lset264 = Ltmp320-Lfunc_begin7          ##     jumps to Ltmp320
	.long	Lset264
	.byte	1                       ##   On action: 1
Lset265 = Ltmp319-Lfunc_begin7          ## >> Call Site 4 <<
	.long	Lset265
Lset266 = Lfunc_end7-Ltmp319            ##   Call between Ltmp319 and Lfunc_end7
	.long	Lset266
	.long	0                       ##     has no landing pad
	.byte	0                       ##   On action: cleanup
	.byte	1                       ## >> Action Record 1 <<
                                        ##   Catch TypeInfo 1
	.byte	0                       ##   No further actions
                                        ## >> Catch TypeInfos <<
	.long	0                       ## TypeInfo 1
	.align	2

	.section	__TEXT,__text,regular,pure_instructions
	.globl	__ZNSt3__111char_traitsIcE11eq_int_typeEii
	.weak_def_can_be_hidden	__ZNSt3__111char_traitsIcE11eq_int_typeEii
	.align	4, 0x90
__ZNSt3__111char_traitsIcE11eq_int_typeEii: ## @_ZNSt3__111char_traitsIcE11eq_int_typeEii
	.cfi_startproc
## BB#0:
	pushq	%rbp
Ltmp324:
	.cfi_def_cfa_offset 16
Ltmp325:
	.cfi_offset %rbp, -16
	movq	%rsp, %rbp
Ltmp326:
	.cfi_def_cfa_register %rbp
	movl	%edi, -4(%rbp)
	movl	%esi, -8(%rbp)
	movl	-4(%rbp), %esi
	cmpl	-8(%rbp), %esi
	sete	%al
	andb	$1, %al
	movzbl	%al, %eax
	popq	%rbp
	retq
	.cfi_endproc

	.globl	__ZNSt3__111char_traitsIcE3eofEv
	.weak_def_can_be_hidden	__ZNSt3__111char_traitsIcE3eofEv
	.align	4, 0x90
__ZNSt3__111char_traitsIcE3eofEv:       ## @_ZNSt3__111char_traitsIcE3eofEv
	.cfi_startproc
## BB#0:
	pushq	%rbp
Ltmp327:
	.cfi_def_cfa_offset 16
Ltmp328:
	.cfi_offset %rbp, -16
	movq	%rsp, %rbp
Ltmp329:
	.cfi_def_cfa_register %rbp
	movl	$4294967295, %eax       ## imm = 0xFFFFFFFF
	popq	%rbp
	retq
	.cfi_endproc

	.private_extern	__ZNSt3__14endlIcNS_11char_traitsIcEEEERNS_13basic_ostreamIT_T0_EES7_
	.globl	__ZNSt3__14endlIcNS_11char_traitsIcEEEERNS_13basic_ostreamIT_T0_EES7_
	.weak_definition	__ZNSt3__14endlIcNS_11char_traitsIcEEEERNS_13basic_ostreamIT_T0_EES7_
	.align	4, 0x90
__ZNSt3__14endlIcNS_11char_traitsIcEEEERNS_13basic_ostreamIT_T0_EES7_: ## @_ZNSt3__14endlIcNS_11char_traitsIcEEEERNS_13basic_ostreamIT_T0_EES7_
Lfunc_begin8:
	.cfi_startproc
	.cfi_personality 155, ___gxx_personality_v0
	.cfi_lsda 16, Lexception8
## BB#0:
	pushq	%rbp
Ltmp338:
	.cfi_def_cfa_offset 16
Ltmp339:
	.cfi_offset %rbp, -16
	movq	%rsp, %rbp
Ltmp340:
	.cfi_def_cfa_register %rbp
	subq	$144, %rsp
	movq	%rdi, -72(%rbp)
	movq	%rdi, %rax
	movq	(%rdi), %rcx
	movq	-24(%rcx), %rcx
	addq	%rcx, %rdi
	movq	%rdi, -32(%rbp)
	movb	$10, -33(%rbp)
	movq	-32(%rbp), %rsi
	leaq	-48(%rbp), %rcx
	movq	%rcx, %rdi
	movq	%rax, -80(%rbp)         ## 8-byte Spill
	movq	%rcx, -88(%rbp)         ## 8-byte Spill
	callq	__ZNKSt3__18ios_base6getlocEv
	movq	-88(%rbp), %rax         ## 8-byte Reload
	movq	%rax, -24(%rbp)
Ltmp330:
	movq	__ZNSt3__15ctypeIcE2idE@GOTPCREL(%rip), %rsi
	movq	%rax, %rdi
	callq	__ZNKSt3__16locale9use_facetERNS0_2idE
Ltmp331:
	movq	%rax, -96(%rbp)         ## 8-byte Spill
	jmp	LBB26_1
LBB26_1:
	movb	-33(%rbp), %al
	movq	-96(%rbp), %rcx         ## 8-byte Reload
	movq	%rcx, -8(%rbp)
	movb	%al, -9(%rbp)
	movq	-8(%rbp), %rdx
	movq	(%rdx), %rsi
	movq	56(%rsi), %rsi
	movsbl	-9(%rbp), %edi
Ltmp332:
	movl	%edi, -100(%rbp)        ## 4-byte Spill
	movq	%rdx, %rdi
	movl	-100(%rbp), %r8d        ## 4-byte Reload
	movq	%rsi, -112(%rbp)        ## 8-byte Spill
	movl	%r8d, %esi
	movq	-112(%rbp), %rdx        ## 8-byte Reload
	callq	*%rdx
Ltmp333:
	movb	%al, -113(%rbp)         ## 1-byte Spill
	jmp	LBB26_5
LBB26_2:
Ltmp334:
	movl	%edx, %ecx
	movq	%rax, -56(%rbp)
	movl	%ecx, -60(%rbp)
Ltmp335:
	leaq	-48(%rbp), %rdi
	callq	__ZNSt3__16localeD1Ev
Ltmp336:
	jmp	LBB26_3
LBB26_3:
	movq	-56(%rbp), %rdi
	callq	__Unwind_Resume
LBB26_4:
Ltmp337:
	movl	%edx, %ecx
	movq	%rax, %rdi
	movl	%ecx, -120(%rbp)        ## 4-byte Spill
	callq	___clang_call_terminate
LBB26_5:
	leaq	-48(%rbp), %rdi
	callq	__ZNSt3__16localeD1Ev
	movq	-80(%rbp), %rdi         ## 8-byte Reload
	movb	-113(%rbp), %al         ## 1-byte Reload
	movsbl	%al, %esi
	callq	__ZNSt3__113basic_ostreamIcNS_11char_traitsIcEEE3putEc
	movq	-72(%rbp), %rdi
	movq	%rax, -128(%rbp)        ## 8-byte Spill
	callq	__ZNSt3__113basic_ostreamIcNS_11char_traitsIcEEE5flushEv
	movq	-72(%rbp), %rdi
	movq	%rax, -136(%rbp)        ## 8-byte Spill
	movq	%rdi, %rax
	addq	$144, %rsp
	popq	%rbp
	retq
Lfunc_end8:
	.cfi_endproc
	.section	__TEXT,__gcc_except_tab
	.align	2
GCC_except_table26:
Lexception8:
	.byte	255                     ## @LPStart Encoding = omit
	.byte	155                     ## @TType Encoding = indirect pcrel sdata4
	.asciz	"\274"                  ## @TType base offset
	.byte	3                       ## Call site Encoding = udata4
	.byte	52                      ## Call site table length
Lset267 = Lfunc_begin8-Lfunc_begin8     ## >> Call Site 1 <<
	.long	Lset267
Lset268 = Ltmp330-Lfunc_begin8          ##   Call between Lfunc_begin8 and Ltmp330
	.long	Lset268
	.long	0                       ##     has no landing pad
	.byte	0                       ##   On action: cleanup
Lset269 = Ltmp330-Lfunc_begin8          ## >> Call Site 2 <<
	.long	Lset269
Lset270 = Ltmp333-Ltmp330               ##   Call between Ltmp330 and Ltmp333
	.long	Lset270
Lset271 = Ltmp334-Lfunc_begin8          ##     jumps to Ltmp334
	.long	Lset271
	.byte	0                       ##   On action: cleanup
Lset272 = Ltmp335-Lfunc_begin8          ## >> Call Site 3 <<
	.long	Lset272
Lset273 = Ltmp336-Ltmp335               ##   Call between Ltmp335 and Ltmp336
	.long	Lset273
Lset274 = Ltmp337-Lfunc_begin8          ##     jumps to Ltmp337
	.long	Lset274
	.byte	1                       ##   On action: 1
Lset275 = Ltmp336-Lfunc_begin8          ## >> Call Site 4 <<
	.long	Lset275
Lset276 = Lfunc_end8-Ltmp336            ##   Call between Ltmp336 and Lfunc_end8
	.long	Lset276
	.long	0                       ##     has no landing pad
	.byte	0                       ##   On action: cleanup
	.byte	1                       ## >> Action Record 1 <<
                                        ##   Catch TypeInfo 1
	.byte	0                       ##   No further actions
                                        ## >> Catch TypeInfos <<
	.long	0                       ## TypeInfo 1
	.align	2

	.section	__TEXT,__text,regular,pure_instructions
	.globl	__ZN12YASSCompiler7CompileENSt3__112basic_stringIcNS0_11char_traitsIcEENS0_9allocatorIcEEEE
	.weak_def_can_be_hidden	__ZN12YASSCompiler7CompileENSt3__112basic_stringIcNS0_11char_traitsIcEENS0_9allocatorIcEEEE
	.align	4, 0x90
__ZN12YASSCompiler7CompileENSt3__112basic_stringIcNS0_11char_traitsIcEENS0_9allocatorIcEEEE: ## @_ZN12YASSCompiler7CompileENSt3__112basic_stringIcNS0_11char_traitsIcEENS0_9allocatorIcEEEE
Lfunc_begin9:
	.cfi_startproc
	.cfi_personality 155, ___gxx_personality_v0
	.cfi_lsda 16, Lexception9
## BB#0:
	pushq	%rbp
Ltmp376:
	.cfi_def_cfa_offset 16
Ltmp377:
	.cfi_offset %rbp, -16
	movq	%rsp, %rbp
Ltmp378:
	.cfi_def_cfa_register %rbp
	subq	$304, %rsp              ## imm = 0x130
	movq	%rdi, %rax
	movq	%rsi, -72(%rbp)
	movl	$72, %ecx
	movl	%ecx, %r8d
	movq	%rdi, -184(%rbp)        ## 8-byte Spill
	movq	%r8, %rdi
	movq	%rax, -192(%rbp)        ## 8-byte Spill
	movq	%rdx, -200(%rbp)        ## 8-byte Spill
	movq	%rsi, -208(%rbp)        ## 8-byte Spill
	callq	__Znwm
	movq	%rax, %rdx
	movq	%rax, %rsi
Ltmp341:
	movq	%rax, %rdi
	movq	%rsi, -216(%rbp)        ## 8-byte Spill
	movq	%rdx, -224(%rbp)        ## 8-byte Spill
	callq	__ZN13YASSByteCodesC1Ev
Ltmp342:
	jmp	LBB27_1
LBB27_1:
	movq	-216(%rbp), %rax        ## 8-byte Reload
	movq	%rax, -80(%rbp)
	movl	$96, %ecx
	movl	%ecx, %edi
	callq	__Znwm
	movq	%rax, %rdi
	movb	$1, -121(%rbp)
Ltmp344:
	leaq	-120(%rbp), %rdx
	movq	%rdi, -232(%rbp)        ## 8-byte Spill
	movq	%rdx, %rdi
	movq	-200(%rbp), %rsi        ## 8-byte Reload
	movq	%rax, -240(%rbp)        ## 8-byte Spill
	callq	__ZNSt3__112basic_stringIcNS_11char_traitsIcEENS_9allocatorIcEEEC1ERKS5_
Ltmp345:
	jmp	LBB27_2
LBB27_2:
	movq	-80(%rbp), %rdx
Ltmp346:
	leaq	-120(%rbp), %rsi
	movq	-240(%rbp), %rdi        ## 8-byte Reload
	callq	__ZN9ZPEParserC1ENSt3__112basic_stringIcNS0_11char_traitsIcEENS0_9allocatorIcEEEEP12ZPETokeniser
Ltmp347:
	jmp	LBB27_3
LBB27_3:
	movb	$0, -121(%rbp)
	movq	-208(%rbp), %rax        ## 8-byte Reload
	movq	-240(%rbp), %rcx        ## 8-byte Reload
	movq	%rcx, (%rax)
Ltmp351:
	leaq	-120(%rbp), %rdi
	callq	__ZNSt3__112basic_stringIcNS_11char_traitsIcEENS_9allocatorIcEEED1Ev
Ltmp352:
	jmp	LBB27_4
LBB27_4:
	movb	$0, -122(%rbp)
	movq	-184(%rbp), %rax        ## 8-byte Reload
	movq	%rax, -56(%rbp)
	leaq	L_.str.4(%rip), %rcx
	movq	%rcx, -64(%rbp)
	movq	-56(%rbp), %rdx
	movq	%rdx, -40(%rbp)
	movq	%rcx, -48(%rbp)
	movq	-40(%rbp), %rcx
	movq	%rcx, -32(%rbp)
	movq	%rcx, -24(%rbp)
	movq	%rcx, -16(%rbp)
	movq	%rcx, -8(%rbp)
	movq	$0, 16(%rcx)
	movq	$0, 8(%rcx)
	movq	$0, (%rcx)
	movq	-48(%rbp), %rdx
	movq	%rdx, %rdi
	movq	%rcx, -248(%rbp)        ## 8-byte Spill
	movq	%rdx, -256(%rbp)        ## 8-byte Spill
	callq	__ZNSt3__111char_traitsIcE6lengthEPKc
	movq	-248(%rbp), %rdi        ## 8-byte Reload
	movq	-256(%rbp), %rsi        ## 8-byte Reload
	movq	%rax, %rdx
	callq	__ZNSt3__112basic_stringIcNS_11char_traitsIcEENS_9allocatorIcEEE6__initEPKcm
Ltmp354:
	movl	$56, %r8d
	movl	%r8d, %edi
	callq	__Znwm
Ltmp355:
	movq	%rax, -264(%rbp)        ## 8-byte Spill
	jmp	LBB27_5
LBB27_5:
	movq	-264(%rbp), %rax        ## 8-byte Reload
	movq	-264(%rbp), %rcx        ## 8-byte Reload
	movq	$0, 48(%rcx)
	movq	$0, 40(%rcx)
	movq	$0, 32(%rcx)
	movq	$0, 24(%rcx)
	movq	$0, 16(%rcx)
	movq	$0, 8(%rcx)
	movq	$0, (%rcx)
Ltmp356:
	movq	%rcx, %rdi
	movq	%rax, -272(%rbp)        ## 8-byte Spill
	callq	__ZN6ZenASTC1Ev
Ltmp357:
	jmp	LBB27_6
LBB27_6:
	movq	-272(%rbp), %rax        ## 8-byte Reload
	movq	%rax, -136(%rbp)
	movq	-136(%rbp), %rcx
	movq	%rcx, -144(%rbp)
LBB27_7:                                ## =>This Inner Loop Header: Depth=1
	movq	-208(%rbp), %rax        ## 8-byte Reload
	movq	(%rax), %rdi
Ltmp359:
	callq	__ZN9ZPEParser7HasNextEv
Ltmp360:
	movb	%al, -273(%rbp)         ## 1-byte Spill
	jmp	LBB27_8
LBB27_8:                                ##   in Loop: Header=BB27_7 Depth=1
	movb	-273(%rbp), %al         ## 1-byte Reload
	testb	$1, %al
	jne	LBB27_9
	jmp	LBB27_25
LBB27_9:                                ##   in Loop: Header=BB27_7 Depth=1
	movq	-208(%rbp), %rax        ## 8-byte Reload
	movq	(%rax), %rsi
Ltmp361:
	leaq	-168(%rbp), %rdi
	callq	__ZN9ZPEParser7GetNextEv
Ltmp362:
	jmp	LBB27_10
LBB27_10:                               ##   in Loop: Header=BB27_7 Depth=1
	movq	-208(%rbp), %rax        ## 8-byte Reload
	movq	(%rax), %rdi
Ltmp363:
	callq	__ZN9ZPEParser16GetCurrentSymbolEv
Ltmp364:
	movl	%eax, -280(%rbp)        ## 4-byte Spill
	jmp	LBB27_11
LBB27_11:                               ##   in Loop: Header=BB27_7 Depth=1
	movl	-280(%rbp), %eax        ## 4-byte Reload
	movl	%eax, -172(%rbp)
Ltmp365:
	movq	-208(%rbp), %rdi        ## 8-byte Reload
	movl	%eax, %esi
	callq	__ZN12YASSCompiler6ToNodeEi
Ltmp366:
	movq	%rax, -288(%rbp)        ## 8-byte Spill
	jmp	LBB27_12
LBB27_12:                               ##   in Loop: Header=BB27_7 Depth=1
	movq	-144(%rbp), %rax
	movq	-288(%rbp), %rcx        ## 8-byte Reload
	movq	%rcx, 16(%rax)
	movq	-144(%rbp), %rax
	movq	16(%rax), %rax
	movq	%rax, -144(%rbp)
Ltmp370:
	leaq	-168(%rbp), %rdi
	callq	__ZNSt3__112basic_stringIcNS_11char_traitsIcEENS_9allocatorIcEEED1Ev
Ltmp371:
	jmp	LBB27_13
LBB27_13:                               ##   in Loop: Header=BB27_7 Depth=1
	jmp	LBB27_7
LBB27_14:
Ltmp343:
	movl	%edx, %ecx
	movq	%rax, -88(%rbp)
	movl	%ecx, -92(%rbp)
	movq	-224(%rbp), %rdi        ## 8-byte Reload
	callq	__ZdlPv
	jmp	LBB27_30
LBB27_15:
Ltmp353:
	movl	%edx, %ecx
	movq	%rax, -88(%rbp)
	movl	%ecx, -92(%rbp)
	jmp	LBB27_18
LBB27_16:
Ltmp348:
	movl	%edx, %ecx
	movq	%rax, -88(%rbp)
	movl	%ecx, -92(%rbp)
Ltmp349:
	leaq	-120(%rbp), %rdi
	callq	__ZNSt3__112basic_stringIcNS_11char_traitsIcEENS_9allocatorIcEEED1Ev
Ltmp350:
	jmp	LBB27_17
LBB27_17:
	jmp	LBB27_18
LBB27_18:
	testb	$1, -121(%rbp)
	jne	LBB27_19
	jmp	LBB27_20
LBB27_19:
	movq	-232(%rbp), %rdi        ## 8-byte Reload
	callq	__ZdlPv
LBB27_20:
	jmp	LBB27_30
LBB27_21:
Ltmp372:
	movl	%edx, %ecx
	movq	%rax, -88(%rbp)
	movl	%ecx, -92(%rbp)
	jmp	LBB27_28
LBB27_22:
Ltmp358:
	movl	%edx, %ecx
	movq	%rax, -88(%rbp)
	movl	%ecx, -92(%rbp)
	movq	-264(%rbp), %rdi        ## 8-byte Reload
	callq	__ZdlPv
	jmp	LBB27_28
LBB27_23:
Ltmp367:
	movl	%edx, %ecx
	movq	%rax, -88(%rbp)
	movl	%ecx, -92(%rbp)
Ltmp368:
	leaq	-168(%rbp), %rdi
	callq	__ZNSt3__112basic_stringIcNS_11char_traitsIcEENS_9allocatorIcEEED1Ev
Ltmp369:
	jmp	LBB27_24
LBB27_24:
	jmp	LBB27_28
LBB27_25:
	movb	$1, -122(%rbp)
	testb	$1, -122(%rbp)
	jne	LBB27_27
## BB#26:
	movq	-184(%rbp), %rdi        ## 8-byte Reload
	callq	__ZNSt3__112basic_stringIcNS_11char_traitsIcEENS_9allocatorIcEEED1Ev
LBB27_27:
	movq	-192(%rbp), %rax        ## 8-byte Reload
	addq	$304, %rsp              ## imm = 0x130
	popq	%rbp
	retq
LBB27_28:
Ltmp373:
	movq	-184(%rbp), %rdi        ## 8-byte Reload
	callq	__ZNSt3__112basic_stringIcNS_11char_traitsIcEENS_9allocatorIcEEED1Ev
Ltmp374:
	jmp	LBB27_29
LBB27_29:
	jmp	LBB27_30
LBB27_30:
	movq	-88(%rbp), %rdi
	callq	__Unwind_Resume
LBB27_31:
Ltmp375:
	movl	%edx, %ecx
	movq	%rax, %rdi
	movl	%ecx, -292(%rbp)        ## 4-byte Spill
	callq	___clang_call_terminate
Lfunc_end9:
	.cfi_endproc
	.section	__TEXT,__gcc_except_tab
	.align	2
GCC_except_table27:
Lexception9:
	.byte	255                     ## @LPStart Encoding = omit
	.byte	155                     ## @TType Encoding = indirect pcrel sdata4
	.asciz	"\331\201\200\200"      ## @TType base offset
	.byte	3                       ## Call site Encoding = udata4
	.ascii	"\320\001"              ## Call site table length
Lset277 = Lfunc_begin9-Lfunc_begin9     ## >> Call Site 1 <<
	.long	Lset277
Lset278 = Ltmp341-Lfunc_begin9          ##   Call between Lfunc_begin9 and Ltmp341
	.long	Lset278
	.long	0                       ##     has no landing pad
	.byte	0                       ##   On action: cleanup
Lset279 = Ltmp341-Lfunc_begin9          ## >> Call Site 2 <<
	.long	Lset279
Lset280 = Ltmp342-Ltmp341               ##   Call between Ltmp341 and Ltmp342
	.long	Lset280
Lset281 = Ltmp343-Lfunc_begin9          ##     jumps to Ltmp343
	.long	Lset281
	.byte	0                       ##   On action: cleanup
Lset282 = Ltmp342-Lfunc_begin9          ## >> Call Site 3 <<
	.long	Lset282
Lset283 = Ltmp344-Ltmp342               ##   Call between Ltmp342 and Ltmp344
	.long	Lset283
	.long	0                       ##     has no landing pad
	.byte	0                       ##   On action: cleanup
Lset284 = Ltmp344-Lfunc_begin9          ## >> Call Site 4 <<
	.long	Lset284
Lset285 = Ltmp345-Ltmp344               ##   Call between Ltmp344 and Ltmp345
	.long	Lset285
Lset286 = Ltmp353-Lfunc_begin9          ##     jumps to Ltmp353
	.long	Lset286
	.byte	0                       ##   On action: cleanup
Lset287 = Ltmp346-Lfunc_begin9          ## >> Call Site 5 <<
	.long	Lset287
Lset288 = Ltmp347-Ltmp346               ##   Call between Ltmp346 and Ltmp347
	.long	Lset288
Lset289 = Ltmp348-Lfunc_begin9          ##     jumps to Ltmp348
	.long	Lset289
	.byte	0                       ##   On action: cleanup
Lset290 = Ltmp351-Lfunc_begin9          ## >> Call Site 6 <<
	.long	Lset290
Lset291 = Ltmp352-Ltmp351               ##   Call between Ltmp351 and Ltmp352
	.long	Lset291
Lset292 = Ltmp353-Lfunc_begin9          ##     jumps to Ltmp353
	.long	Lset292
	.byte	0                       ##   On action: cleanup
Lset293 = Ltmp352-Lfunc_begin9          ## >> Call Site 7 <<
	.long	Lset293
Lset294 = Ltmp354-Ltmp352               ##   Call between Ltmp352 and Ltmp354
	.long	Lset294
	.long	0                       ##     has no landing pad
	.byte	0                       ##   On action: cleanup
Lset295 = Ltmp354-Lfunc_begin9          ## >> Call Site 8 <<
	.long	Lset295
Lset296 = Ltmp355-Ltmp354               ##   Call between Ltmp354 and Ltmp355
	.long	Lset296
Lset297 = Ltmp372-Lfunc_begin9          ##     jumps to Ltmp372
	.long	Lset297
	.byte	0                       ##   On action: cleanup
Lset298 = Ltmp356-Lfunc_begin9          ## >> Call Site 9 <<
	.long	Lset298
Lset299 = Ltmp357-Ltmp356               ##   Call between Ltmp356 and Ltmp357
	.long	Lset299
Lset300 = Ltmp358-Lfunc_begin9          ##     jumps to Ltmp358
	.long	Lset300
	.byte	0                       ##   On action: cleanup
Lset301 = Ltmp359-Lfunc_begin9          ## >> Call Site 10 <<
	.long	Lset301
Lset302 = Ltmp362-Ltmp359               ##   Call between Ltmp359 and Ltmp362
	.long	Lset302
Lset303 = Ltmp372-Lfunc_begin9          ##     jumps to Ltmp372
	.long	Lset303
	.byte	0                       ##   On action: cleanup
Lset304 = Ltmp363-Lfunc_begin9          ## >> Call Site 11 <<
	.long	Lset304
Lset305 = Ltmp366-Ltmp363               ##   Call between Ltmp363 and Ltmp366
	.long	Lset305
Lset306 = Ltmp367-Lfunc_begin9          ##     jumps to Ltmp367
	.long	Lset306
	.byte	0                       ##   On action: cleanup
Lset307 = Ltmp370-Lfunc_begin9          ## >> Call Site 12 <<
	.long	Lset307
Lset308 = Ltmp371-Ltmp370               ##   Call between Ltmp370 and Ltmp371
	.long	Lset308
Lset309 = Ltmp372-Lfunc_begin9          ##     jumps to Ltmp372
	.long	Lset309
	.byte	0                       ##   On action: cleanup
Lset310 = Ltmp349-Lfunc_begin9          ## >> Call Site 13 <<
	.long	Lset310
Lset311 = Ltmp369-Ltmp349               ##   Call between Ltmp349 and Ltmp369
	.long	Lset311
Lset312 = Ltmp375-Lfunc_begin9          ##     jumps to Ltmp375
	.long	Lset312
	.byte	1                       ##   On action: 1
Lset313 = Ltmp369-Lfunc_begin9          ## >> Call Site 14 <<
	.long	Lset313
Lset314 = Ltmp373-Ltmp369               ##   Call between Ltmp369 and Ltmp373
	.long	Lset314
	.long	0                       ##     has no landing pad
	.byte	0                       ##   On action: cleanup
Lset315 = Ltmp373-Lfunc_begin9          ## >> Call Site 15 <<
	.long	Lset315
Lset316 = Ltmp374-Ltmp373               ##   Call between Ltmp373 and Ltmp374
	.long	Lset316
Lset317 = Ltmp375-Lfunc_begin9          ##     jumps to Ltmp375
	.long	Lset317
	.byte	1                       ##   On action: 1
Lset318 = Ltmp374-Lfunc_begin9          ## >> Call Site 16 <<
	.long	Lset318
Lset319 = Lfunc_end9-Ltmp374            ##   Call between Ltmp374 and Lfunc_end9
	.long	Lset319
	.long	0                       ##     has no landing pad
	.byte	0                       ##   On action: cleanup
	.byte	1                       ## >> Action Record 1 <<
                                        ##   Catch TypeInfo 1
	.byte	0                       ##   No further actions
                                        ## >> Catch TypeInfos <<
	.long	0                       ## TypeInfo 1
	.align	2

	.section	__TEXT,__text,regular,pure_instructions
	.globl	__ZN13YASSByteCodesC1Ev
	.weak_def_can_be_hidden	__ZN13YASSByteCodesC1Ev
	.align	4, 0x90
__ZN13YASSByteCodesC1Ev:                ## @_ZN13YASSByteCodesC1Ev
	.cfi_startproc
## BB#0:
	pushq	%rbp
Ltmp379:
	.cfi_def_cfa_offset 16
Ltmp380:
	.cfi_offset %rbp, -16
	movq	%rsp, %rbp
Ltmp381:
	.cfi_def_cfa_register %rbp
	subq	$16, %rsp
	movq	%rdi, -8(%rbp)
	movq	-8(%rbp), %rdi
	callq	__ZN13YASSByteCodesC2Ev
	addq	$16, %rsp
	popq	%rbp
	retq
	.cfi_endproc

	.globl	__ZN9ZPEParserC1ENSt3__112basic_stringIcNS0_11char_traitsIcEENS0_9allocatorIcEEEEP12ZPETokeniser
	.weak_def_can_be_hidden	__ZN9ZPEParserC1ENSt3__112basic_stringIcNS0_11char_traitsIcEENS0_9allocatorIcEEEEP12ZPETokeniser
	.align	4, 0x90
__ZN9ZPEParserC1ENSt3__112basic_stringIcNS0_11char_traitsIcEENS0_9allocatorIcEEEEP12ZPETokeniser: ## @_ZN9ZPEParserC1ENSt3__112basic_stringIcNS0_11char_traitsIcEENS0_9allocatorIcEEEEP12ZPETokeniser
	.cfi_startproc
## BB#0:
	pushq	%rbp
Ltmp382:
	.cfi_def_cfa_offset 16
Ltmp383:
	.cfi_offset %rbp, -16
	movq	%rsp, %rbp
Ltmp384:
	.cfi_def_cfa_register %rbp
	subq	$16, %rsp
	movq	%rdi, -8(%rbp)
	movq	%rdx, -16(%rbp)
	movq	-8(%rbp), %rdi
	movq	-16(%rbp), %rdx
	callq	__ZN9ZPEParserC2ENSt3__112basic_stringIcNS0_11char_traitsIcEENS0_9allocatorIcEEEEP12ZPETokeniser
	addq	$16, %rsp
	popq	%rbp
	retq
	.cfi_endproc

	.globl	__ZN6ZenASTC1Ev
	.weak_def_can_be_hidden	__ZN6ZenASTC1Ev
	.align	4, 0x90
__ZN6ZenASTC1Ev:                        ## @_ZN6ZenASTC1Ev
	.cfi_startproc
## BB#0:
	pushq	%rbp
Ltmp385:
	.cfi_def_cfa_offset 16
Ltmp386:
	.cfi_offset %rbp, -16
	movq	%rsp, %rbp
Ltmp387:
	.cfi_def_cfa_register %rbp
	subq	$16, %rsp
	movq	%rdi, -8(%rbp)
	movq	-8(%rbp), %rdi
	callq	__ZN6ZenASTC2Ev
	addq	$16, %rsp
	popq	%rbp
	retq
	.cfi_endproc

	.globl	__ZN9ZPEParser7HasNextEv
	.weak_def_can_be_hidden	__ZN9ZPEParser7HasNextEv
	.align	4, 0x90
__ZN9ZPEParser7HasNextEv:               ## @_ZN9ZPEParser7HasNextEv
	.cfi_startproc
## BB#0:
	pushq	%rbp
Ltmp388:
	.cfi_def_cfa_offset 16
Ltmp389:
	.cfi_offset %rbp, -16
	movq	%rsp, %rbp
Ltmp390:
	.cfi_def_cfa_register %rbp
	movq	%rdi, -96(%rbp)
	movq	-96(%rbp), %rdi
	movq	%rdi, -88(%rbp)
	movq	-88(%rbp), %rax
	movq	%rax, -80(%rbp)
	movq	-80(%rbp), %rax
	movq	%rax, -72(%rbp)
	movq	-72(%rbp), %rcx
	movq	%rcx, -64(%rbp)
	movq	-64(%rbp), %rcx
	movq	%rcx, -56(%rbp)
	movq	-56(%rbp), %rcx
	movzbl	(%rcx), %edx
	andl	$1, %edx
	cmpl	$0, %edx
	movq	%rdi, -112(%rbp)        ## 8-byte Spill
	movq	%rax, -120(%rbp)        ## 8-byte Spill
	je	LBB31_2
## BB#1:
	movq	-120(%rbp), %rax        ## 8-byte Reload
	movq	%rax, -24(%rbp)
	movq	-24(%rbp), %rcx
	movq	%rcx, -16(%rbp)
	movq	-16(%rbp), %rcx
	movq	%rcx, -8(%rbp)
	movq	-8(%rbp), %rcx
	movq	8(%rcx), %rcx
	movq	%rcx, -128(%rbp)        ## 8-byte Spill
	jmp	LBB31_3
LBB31_2:
	movq	-120(%rbp), %rax        ## 8-byte Reload
	movq	%rax, -48(%rbp)
	movq	-48(%rbp), %rcx
	movq	%rcx, -40(%rbp)
	movq	-40(%rbp), %rcx
	movq	%rcx, -32(%rbp)
	movq	-32(%rbp), %rcx
	movzbl	(%rcx), %edx
	sarl	$1, %edx
	movslq	%edx, %rcx
	movq	%rcx, -128(%rbp)        ## 8-byte Spill
LBB31_3:
	movq	-128(%rbp), %rax        ## 8-byte Reload
	movl	%eax, %ecx
	movl	%ecx, -100(%rbp)
	movq	-112(%rbp), %rax        ## 8-byte Reload
	movl	80(%rax), %ecx
	cmpl	-100(%rbp), %ecx
	setl	%dl
	andb	$1, %dl
	movzbl	%dl, %eax
	popq	%rbp
	retq
	.cfi_endproc

	.globl	__ZN9ZPEParser7GetNextEv
	.weak_def_can_be_hidden	__ZN9ZPEParser7GetNextEv
	.align	4, 0x90
__ZN9ZPEParser7GetNextEv:               ## @_ZN9ZPEParser7GetNextEv
Lfunc_begin10:
	.cfi_startproc
	.cfi_personality 155, ___gxx_personality_v0
	.cfi_lsda 16, Lexception10
## BB#0:
	pushq	%rbp
Ltmp397:
	.cfi_def_cfa_offset 16
Ltmp398:
	.cfi_offset %rbp, -16
	movq	%rsp, %rbp
Ltmp399:
	.cfi_def_cfa_register %rbp
	subq	$112, %rsp
	movq	%rdi, %rax
	movq	%rsi, -8(%rbp)
	movq	%rsi, %rcx
	movq	%rsi, %rdx
	addq	$32, %rdx
	leaq	-32(%rbp), %r8
	movq	%rdi, -56(%rbp)         ## 8-byte Spill
	movq	%r8, %rdi
	movq	%rax, -64(%rbp)         ## 8-byte Spill
	movq	%rdx, -72(%rbp)         ## 8-byte Spill
	movq	%r8, -80(%rbp)          ## 8-byte Spill
	movq	%rcx, -88(%rbp)         ## 8-byte Spill
	callq	__ZN9ZPEParser8FindWordEv
Ltmp391:
	movq	-72(%rbp), %rdi         ## 8-byte Reload
	movq	-80(%rbp), %rsi         ## 8-byte Reload
	callq	__ZNSt3__112basic_stringIcNS_11char_traitsIcEENS_9allocatorIcEEEaSERKS5_
Ltmp392:
	movq	%rax, -96(%rbp)         ## 8-byte Spill
	jmp	LBB32_1
LBB32_1:
	leaq	-32(%rbp), %rdi
	callq	__ZNSt3__112basic_stringIcNS_11char_traitsIcEENS_9allocatorIcEEED1Ev
	movq	-88(%rbp), %rdi         ## 8-byte Reload
	addq	$32, %rdi
	movq	-56(%rbp), %rax         ## 8-byte Reload
	movq	%rdi, -104(%rbp)        ## 8-byte Spill
	movq	%rax, %rdi
	movq	-104(%rbp), %rsi        ## 8-byte Reload
	callq	__ZNSt3__112basic_stringIcNS_11char_traitsIcEENS_9allocatorIcEEEC1ERKS5_
	movq	-64(%rbp), %rax         ## 8-byte Reload
	addq	$112, %rsp
	popq	%rbp
	retq
LBB32_2:
Ltmp393:
	movl	%edx, %ecx
	movq	%rax, -40(%rbp)
	movl	%ecx, -44(%rbp)
Ltmp394:
	leaq	-32(%rbp), %rdi
	callq	__ZNSt3__112basic_stringIcNS_11char_traitsIcEENS_9allocatorIcEEED1Ev
Ltmp395:
	jmp	LBB32_3
LBB32_3:
	jmp	LBB32_4
LBB32_4:
	movq	-40(%rbp), %rdi
	callq	__Unwind_Resume
LBB32_5:
Ltmp396:
	movl	%edx, %ecx
	movq	%rax, %rdi
	movl	%ecx, -108(%rbp)        ## 4-byte Spill
	callq	___clang_call_terminate
Lfunc_end10:
	.cfi_endproc
	.section	__TEXT,__gcc_except_tab
	.align	2
GCC_except_table32:
Lexception10:
	.byte	255                     ## @LPStart Encoding = omit
	.byte	155                     ## @TType Encoding = indirect pcrel sdata4
	.byte	73                      ## @TType base offset
	.byte	3                       ## Call site Encoding = udata4
	.byte	65                      ## Call site table length
Lset320 = Lfunc_begin10-Lfunc_begin10   ## >> Call Site 1 <<
	.long	Lset320
Lset321 = Ltmp391-Lfunc_begin10         ##   Call between Lfunc_begin10 and Ltmp391
	.long	Lset321
	.long	0                       ##     has no landing pad
	.byte	0                       ##   On action: cleanup
Lset322 = Ltmp391-Lfunc_begin10         ## >> Call Site 2 <<
	.long	Lset322
Lset323 = Ltmp392-Ltmp391               ##   Call between Ltmp391 and Ltmp392
	.long	Lset323
Lset324 = Ltmp393-Lfunc_begin10         ##     jumps to Ltmp393
	.long	Lset324
	.byte	0                       ##   On action: cleanup
Lset325 = Ltmp392-Lfunc_begin10         ## >> Call Site 3 <<
	.long	Lset325
Lset326 = Ltmp394-Ltmp392               ##   Call between Ltmp392 and Ltmp394
	.long	Lset326
	.long	0                       ##     has no landing pad
	.byte	0                       ##   On action: cleanup
Lset327 = Ltmp394-Lfunc_begin10         ## >> Call Site 4 <<
	.long	Lset327
Lset328 = Ltmp395-Ltmp394               ##   Call between Ltmp394 and Ltmp395
	.long	Lset328
Lset329 = Ltmp396-Lfunc_begin10         ##     jumps to Ltmp396
	.long	Lset329
	.byte	1                       ##   On action: 1
Lset330 = Ltmp395-Lfunc_begin10         ## >> Call Site 5 <<
	.long	Lset330
Lset331 = Lfunc_end10-Ltmp395           ##   Call between Ltmp395 and Lfunc_end10
	.long	Lset331
	.long	0                       ##     has no landing pad
	.byte	0                       ##   On action: cleanup
	.byte	1                       ## >> Action Record 1 <<
                                        ##   Catch TypeInfo 1
	.byte	0                       ##   No further actions
                                        ## >> Catch TypeInfos <<
	.long	0                       ## TypeInfo 1
	.align	2

	.section	__TEXT,__text,regular,pure_instructions
	.globl	__ZN9ZPEParser16GetCurrentSymbolEv
	.weak_def_can_be_hidden	__ZN9ZPEParser16GetCurrentSymbolEv
	.align	4, 0x90
__ZN9ZPEParser16GetCurrentSymbolEv:     ## @_ZN9ZPEParser16GetCurrentSymbolEv
Lfunc_begin11:
	.cfi_startproc
	.cfi_personality 155, ___gxx_personality_v0
	.cfi_lsda 16, Lexception11
## BB#0:
	pushq	%rbp
Ltmp406:
	.cfi_def_cfa_offset 16
Ltmp407:
	.cfi_offset %rbp, -16
	movq	%rsp, %rbp
Ltmp408:
	.cfi_def_cfa_register %rbp
	subq	$96, %rsp
	movq	%rdi, -8(%rbp)
	movq	88(%rdi), %rax
	movq	(%rax), %rcx
	movq	(%rcx), %rcx
	addq	$32, %rdi
	leaq	-32(%rbp), %rdx
	movq	%rdi, -56(%rbp)         ## 8-byte Spill
	movq	%rdx, %rdi
	movq	-56(%rbp), %rsi         ## 8-byte Reload
	movq	%rcx, -64(%rbp)         ## 8-byte Spill
	movq	%rax, -72(%rbp)         ## 8-byte Spill
	movq	%rdx, -80(%rbp)         ## 8-byte Spill
	callq	__ZNSt3__112basic_stringIcNS_11char_traitsIcEENS_9allocatorIcEEEC1ERKS5_
Ltmp400:
	movq	-72(%rbp), %rdi         ## 8-byte Reload
	movq	-80(%rbp), %rsi         ## 8-byte Reload
	movq	-64(%rbp), %rax         ## 8-byte Reload
	callq	*%rax
Ltmp401:
	movw	%ax, -82(%rbp)          ## 2-byte Spill
	jmp	LBB33_1
LBB33_1:
	leaq	-32(%rbp), %rdi
	movw	-82(%rbp), %ax          ## 2-byte Reload
	cwtl
	movl	%eax, -88(%rbp)         ## 4-byte Spill
	callq	__ZNSt3__112basic_stringIcNS_11char_traitsIcEENS_9allocatorIcEEED1Ev
	movl	-88(%rbp), %eax         ## 4-byte Reload
	addq	$96, %rsp
	popq	%rbp
	retq
LBB33_2:
Ltmp402:
	movl	%edx, %ecx
	movq	%rax, -40(%rbp)
	movl	%ecx, -44(%rbp)
Ltmp403:
	leaq	-32(%rbp), %rdi
	callq	__ZNSt3__112basic_stringIcNS_11char_traitsIcEENS_9allocatorIcEEED1Ev
Ltmp404:
	jmp	LBB33_3
LBB33_3:
	jmp	LBB33_4
LBB33_4:
	movq	-40(%rbp), %rdi
	callq	__Unwind_Resume
LBB33_5:
Ltmp405:
	movl	%edx, %ecx
	movq	%rax, %rdi
	movl	%ecx, -92(%rbp)         ## 4-byte Spill
	callq	___clang_call_terminate
Lfunc_end11:
	.cfi_endproc
	.section	__TEXT,__gcc_except_tab
	.align	2
GCC_except_table33:
Lexception11:
	.byte	255                     ## @LPStart Encoding = omit
	.byte	155                     ## @TType Encoding = indirect pcrel sdata4
	.byte	73                      ## @TType base offset
	.byte	3                       ## Call site Encoding = udata4
	.byte	65                      ## Call site table length
Lset332 = Lfunc_begin11-Lfunc_begin11   ## >> Call Site 1 <<
	.long	Lset332
Lset333 = Ltmp400-Lfunc_begin11         ##   Call between Lfunc_begin11 and Ltmp400
	.long	Lset333
	.long	0                       ##     has no landing pad
	.byte	0                       ##   On action: cleanup
Lset334 = Ltmp400-Lfunc_begin11         ## >> Call Site 2 <<
	.long	Lset334
Lset335 = Ltmp401-Ltmp400               ##   Call between Ltmp400 and Ltmp401
	.long	Lset335
Lset336 = Ltmp402-Lfunc_begin11         ##     jumps to Ltmp402
	.long	Lset336
	.byte	0                       ##   On action: cleanup
Lset337 = Ltmp401-Lfunc_begin11         ## >> Call Site 3 <<
	.long	Lset337
Lset338 = Ltmp403-Ltmp401               ##   Call between Ltmp401 and Ltmp403
	.long	Lset338
	.long	0                       ##     has no landing pad
	.byte	0                       ##   On action: cleanup
Lset339 = Ltmp403-Lfunc_begin11         ## >> Call Site 4 <<
	.long	Lset339
Lset340 = Ltmp404-Ltmp403               ##   Call between Ltmp403 and Ltmp404
	.long	Lset340
Lset341 = Ltmp405-Lfunc_begin11         ##     jumps to Ltmp405
	.long	Lset341
	.byte	1                       ##   On action: 1
Lset342 = Ltmp404-Lfunc_begin11         ## >> Call Site 5 <<
	.long	Lset342
Lset343 = Lfunc_end11-Ltmp404           ##   Call between Ltmp404 and Lfunc_end11
	.long	Lset343
	.long	0                       ##     has no landing pad
	.byte	0                       ##   On action: cleanup
	.byte	1                       ## >> Action Record 1 <<
                                        ##   Catch TypeInfo 1
	.byte	0                       ##   No further actions
                                        ## >> Catch TypeInfos <<
	.long	0                       ## TypeInfo 1
	.align	2

	.section	__TEXT,__text,regular,pure_instructions
	.globl	__ZN12YASSCompiler6ToNodeEi
	.weak_def_can_be_hidden	__ZN12YASSCompiler6ToNodeEi
	.align	4, 0x90
__ZN12YASSCompiler6ToNodeEi:            ## @_ZN12YASSCompiler6ToNodeEi
Lfunc_begin12:
	.cfi_startproc
	.cfi_personality 155, ___gxx_personality_v0
	.cfi_lsda 16, Lexception12
## BB#0:
	pushq	%rbp
Ltmp412:
	.cfi_def_cfa_offset 16
Ltmp413:
	.cfi_offset %rbp, -16
	movq	%rsp, %rbp
Ltmp414:
	.cfi_def_cfa_register %rbp
	subq	$80, %rsp
	movq	%rdi, -16(%rbp)
	movl	%esi, -20(%rbp)
	movq	-16(%rbp), %rdi
	subl	$4, %esi
	movq	%rdi, -48(%rbp)         ## 8-byte Spill
	movl	%esi, -52(%rbp)         ## 4-byte Spill
	jne	LBB34_2
	jmp	LBB34_1
LBB34_1:
	movq	-48(%rbp), %rdi         ## 8-byte Reload
	callq	__ZN12YASSCompiler10CompileVarEv
	movq	%rax, -8(%rbp)
	jmp	LBB34_5
LBB34_2:
	movl	$56, %eax
	movl	%eax, %edi
	callq	__Znwm
	movq	%rax, %rdi
	movq	%rax, %rcx
	movq	$0, 48(%rax)
	movq	$0, 40(%rax)
	movq	$0, 32(%rax)
	movq	$0, 24(%rax)
	movq	$0, 16(%rax)
	movq	$0, 8(%rax)
	movq	$0, (%rax)
Ltmp409:
	movq	%rdi, -64(%rbp)         ## 8-byte Spill
	movq	%rax, %rdi
	movq	%rcx, -72(%rbp)         ## 8-byte Spill
	callq	__ZN6ZenASTC1Ev
Ltmp410:
	jmp	LBB34_3
LBB34_3:
	movq	-72(%rbp), %rax         ## 8-byte Reload
	movq	%rax, -8(%rbp)
	jmp	LBB34_5
LBB34_4:
Ltmp411:
	movl	%edx, %ecx
	movq	%rax, -32(%rbp)
	movl	%ecx, -36(%rbp)
	movq	-64(%rbp), %rdi         ## 8-byte Reload
	callq	__ZdlPv
	jmp	LBB34_6
LBB34_5:
	movq	-8(%rbp), %rax
	addq	$80, %rsp
	popq	%rbp
	retq
LBB34_6:
	movq	-32(%rbp), %rdi
	callq	__Unwind_Resume
Lfunc_end12:
	.cfi_endproc
	.section	__TEXT,__gcc_except_tab
	.align	2
GCC_except_table34:
Lexception12:
	.byte	255                     ## @LPStart Encoding = omit
	.byte	155                     ## @TType Encoding = indirect pcrel sdata4
	.byte	41                      ## @TType base offset
	.byte	3                       ## Call site Encoding = udata4
	.byte	39                      ## Call site table length
Lset344 = Lfunc_begin12-Lfunc_begin12   ## >> Call Site 1 <<
	.long	Lset344
Lset345 = Ltmp409-Lfunc_begin12         ##   Call between Lfunc_begin12 and Ltmp409
	.long	Lset345
	.long	0                       ##     has no landing pad
	.byte	0                       ##   On action: cleanup
Lset346 = Ltmp409-Lfunc_begin12         ## >> Call Site 2 <<
	.long	Lset346
Lset347 = Ltmp410-Ltmp409               ##   Call between Ltmp409 and Ltmp410
	.long	Lset347
Lset348 = Ltmp411-Lfunc_begin12         ##     jumps to Ltmp411
	.long	Lset348
	.byte	0                       ##   On action: cleanup
Lset349 = Ltmp410-Lfunc_begin12         ## >> Call Site 3 <<
	.long	Lset349
Lset350 = Lfunc_end12-Ltmp410           ##   Call between Ltmp410 and Lfunc_end12
	.long	Lset350
	.long	0                       ##     has no landing pad
	.byte	0                       ##   On action: cleanup
	.align	2

	.section	__TEXT,__text,regular,pure_instructions
	.globl	__ZN13YASSByteCodesC2Ev
	.weak_def_can_be_hidden	__ZN13YASSByteCodesC2Ev
	.align	4, 0x90
__ZN13YASSByteCodesC2Ev:                ## @_ZN13YASSByteCodesC2Ev
Lfunc_begin13:
	.cfi_startproc
	.cfi_personality 155, ___gxx_personality_v0
	.cfi_lsda 16, Lexception13
## BB#0:
	pushq	%rbp
Ltmp433:
	.cfi_def_cfa_offset 16
Ltmp434:
	.cfi_offset %rbp, -16
	movq	%rsp, %rbp
Ltmp435:
	.cfi_def_cfa_register %rbp
	subq	$336, %rsp              ## imm = 0x150
	movq	%rdi, -128(%rbp)
	movq	%rdi, -216(%rbp)        ## 8-byte Spill
	callq	__ZN12ZPETokeniserC2Ev
	movq	__ZTV13YASSByteCodes@GOTPCREL(%rip), %rdi
	addq	$16, %rdi
	movq	-216(%rbp), %rax        ## 8-byte Reload
	movq	%rdi, (%rax)
	addq	$8, %rax
	movq	%rax, %rdi
	movq	%rax, -120(%rbp)
	movq	%rax, -112(%rbp)
	movq	%rdi, -224(%rbp)        ## 8-byte Spill
	movq	%rax, %rdi
	movq	%rax, -232(%rbp)        ## 8-byte Spill
	callq	__ZNSt3__112regex_traitsIcEC1Ev
	movq	-216(%rbp), %rax        ## 8-byte Reload
	movl	$0, 32(%rax)
	movl	$0, 36(%rax)
	movl	$0, 40(%rax)
	movl	$0, 44(%rax)
	addq	$48, %rax
	movq	%rax, -104(%rbp)
	movq	%rax, -96(%rbp)
	movq	-216(%rbp), %rax        ## 8-byte Reload
	movq	$0, 48(%rax)
	movq	$0, 56(%rax)
	movq	$0, 64(%rax)
	leaq	-192(%rbp), %rdi
	movq	%rdi, -72(%rbp)
	leaq	L_.str.16(%rip), %rdi
	movq	%rdi, -80(%rbp)
	movl	$0, -84(%rbp)
	movq	-72(%rbp), %rdi
	movq	-80(%rbp), %rcx
	movq	%rdi, -32(%rbp)
	movq	%rcx, -40(%rbp)
	movl	$0, -44(%rbp)
	movq	-32(%rbp), %rcx
	movq	%rcx, %rdi
Ltmp415:
	movq	%rdi, -240(%rbp)        ## 8-byte Spill
	movq	%rcx, %rdi
	movq	%rcx, -248(%rbp)        ## 8-byte Spill
	callq	__ZNSt3__112regex_traitsIcEC1Ev
Ltmp416:
	jmp	LBB35_1
LBB35_1:
	movl	-44(%rbp), %eax
	movq	-240(%rbp), %rcx        ## 8-byte Reload
	movl	%eax, 24(%rcx)
	movl	$0, 28(%rcx)
	movl	$0, 32(%rcx)
	movl	$0, 36(%rcx)
	addq	$40, %rcx
	movq	%rcx, -24(%rbp)
	movq	%rcx, -16(%rbp)
	movq	-240(%rbp), %rdx        ## 8-byte Reload
	movq	$0, 40(%rdx)
	movq	$0, 48(%rdx)
	movq	$0, 56(%rdx)
	movq	-40(%rbp), %rsi
	movq	%rsi, %rdi
	movq	%rsi, -8(%rbp)
Ltmp417:
	movq	%rdi, -256(%rbp)        ## 8-byte Spill
	movq	%rsi, %rdi
	movq	%rcx, -264(%rbp)        ## 8-byte Spill
	movq	%rsi, -272(%rbp)        ## 8-byte Spill
	callq	__ZNSt3__111char_traitsIcE6lengthEPKc
Ltmp418:
	movq	%rax, -280(%rbp)        ## 8-byte Spill
	jmp	LBB35_2
LBB35_2:
	movq	-272(%rbp), %rax        ## 8-byte Reload
	movq	-280(%rbp), %rcx        ## 8-byte Reload
	addq	%rcx, %rax
Ltmp419:
	movq	-240(%rbp), %rdi        ## 8-byte Reload
	movq	-256(%rbp), %rsi        ## 8-byte Reload
	movq	%rax, %rdx
	callq	__ZNSt3__111basic_regexIcNS_12regex_traitsIcEEE7__parseIPKcEET_S7_S7_
Ltmp420:
	movq	%rax, -288(%rbp)        ## 8-byte Spill
	jmp	LBB35_7
LBB35_3:
Ltmp421:
	movl	%edx, %ecx
	movq	%rax, -56(%rbp)
	movl	%ecx, -60(%rbp)
Ltmp422:
	movq	-264(%rbp), %rdi        ## 8-byte Reload
	callq	__ZNSt3__110shared_ptrINS_13__empty_stateIcEEED1Ev
Ltmp423:
	jmp	LBB35_4
LBB35_4:
Ltmp424:
	movq	-248(%rbp), %rdi        ## 8-byte Reload
	callq	__ZNSt3__112regex_traitsIcED1Ev
Ltmp425:
	jmp	LBB35_5
LBB35_5:
	movq	-56(%rbp), %rax
	movl	-60(%rbp), %ecx
	movq	%rax, -296(%rbp)        ## 8-byte Spill
	movl	%ecx, -300(%rbp)        ## 4-byte Spill
	jmp	LBB35_11
LBB35_6:
Ltmp426:
	movl	%edx, %ecx
	movq	%rax, %rdi
	movl	%ecx, -304(%rbp)        ## 4-byte Spill
	callq	___clang_call_terminate
LBB35_7:
	jmp	LBB35_8
LBB35_8:
	leaq	-192(%rbp), %rax
	movq	-232(%rbp), %rdi        ## 8-byte Reload
	movq	%rax, %rsi
	movq	%rax, -312(%rbp)        ## 8-byte Spill
	callq	__ZNSt3__111basic_regexIcNS_12regex_traitsIcEEEaSERKS3_
Ltmp427:
	movq	-312(%rbp), %rdi        ## 8-byte Reload
	movq	%rax, -320(%rbp)        ## 8-byte Spill
	callq	__ZNSt3__111basic_regexIcNS_12regex_traitsIcEEED1Ev
Ltmp428:
	jmp	LBB35_9
LBB35_9:
	addq	$336, %rsp              ## imm = 0x150
	popq	%rbp
	retq
LBB35_10:
Ltmp429:
	movl	%edx, %ecx
	movq	%rax, -296(%rbp)        ## 8-byte Spill
	movl	%ecx, -300(%rbp)        ## 4-byte Spill
	jmp	LBB35_11
LBB35_11:
	movl	-300(%rbp), %eax        ## 4-byte Reload
	movq	-296(%rbp), %rcx        ## 8-byte Reload
	movq	%rcx, -200(%rbp)
	movl	%eax, -204(%rbp)
Ltmp430:
	movq	-224(%rbp), %rdi        ## 8-byte Reload
	callq	__ZNSt3__111basic_regexIcNS_12regex_traitsIcEEED1Ev
Ltmp431:
	jmp	LBB35_12
LBB35_12:
	jmp	LBB35_13
LBB35_13:
	movq	-200(%rbp), %rdi
	callq	__Unwind_Resume
LBB35_14:
Ltmp432:
	movl	%edx, %ecx
	movq	%rax, %rdi
	movl	%ecx, -324(%rbp)        ## 4-byte Spill
	callq	___clang_call_terminate
Lfunc_end13:
	.cfi_endproc
	.section	__TEXT,__gcc_except_tab
	.align	2
GCC_except_table35:
Lexception13:
	.byte	255                     ## @LPStart Encoding = omit
	.byte	155                     ## @TType Encoding = indirect pcrel sdata4
	.asciz	"\347\200"              ## @TType base offset
	.byte	3                       ## Call site Encoding = udata4
	.byte	91                      ## Call site table length
Lset351 = Lfunc_begin13-Lfunc_begin13   ## >> Call Site 1 <<
	.long	Lset351
Lset352 = Ltmp415-Lfunc_begin13         ##   Call between Lfunc_begin13 and Ltmp415
	.long	Lset352
	.long	0                       ##     has no landing pad
	.byte	0                       ##   On action: cleanup
Lset353 = Ltmp415-Lfunc_begin13         ## >> Call Site 2 <<
	.long	Lset353
Lset354 = Ltmp416-Ltmp415               ##   Call between Ltmp415 and Ltmp416
	.long	Lset354
Lset355 = Ltmp429-Lfunc_begin13         ##     jumps to Ltmp429
	.long	Lset355
	.byte	0                       ##   On action: cleanup
Lset356 = Ltmp417-Lfunc_begin13         ## >> Call Site 3 <<
	.long	Lset356
Lset357 = Ltmp420-Ltmp417               ##   Call between Ltmp417 and Ltmp420
	.long	Lset357
Lset358 = Ltmp421-Lfunc_begin13         ##     jumps to Ltmp421
	.long	Lset358
	.byte	0                       ##   On action: cleanup
Lset359 = Ltmp422-Lfunc_begin13         ## >> Call Site 4 <<
	.long	Lset359
Lset360 = Ltmp425-Ltmp422               ##   Call between Ltmp422 and Ltmp425
	.long	Lset360
Lset361 = Ltmp426-Lfunc_begin13         ##     jumps to Ltmp426
	.long	Lset361
	.byte	3                       ##   On action: 2
Lset362 = Ltmp427-Lfunc_begin13         ## >> Call Site 5 <<
	.long	Lset362
Lset363 = Ltmp428-Ltmp427               ##   Call between Ltmp427 and Ltmp428
	.long	Lset363
Lset364 = Ltmp429-Lfunc_begin13         ##     jumps to Ltmp429
	.long	Lset364
	.byte	0                       ##   On action: cleanup
Lset365 = Ltmp430-Lfunc_begin13         ## >> Call Site 6 <<
	.long	Lset365
Lset366 = Ltmp431-Ltmp430               ##   Call between Ltmp430 and Ltmp431
	.long	Lset366
Lset367 = Ltmp432-Lfunc_begin13         ##     jumps to Ltmp432
	.long	Lset367
	.byte	5                       ##   On action: 3
Lset368 = Ltmp431-Lfunc_begin13         ## >> Call Site 7 <<
	.long	Lset368
Lset369 = Lfunc_end13-Ltmp431           ##   Call between Ltmp431 and Lfunc_end13
	.long	Lset369
	.long	0                       ##     has no landing pad
	.byte	0                       ##   On action: cleanup
	.byte	0                       ## >> Action Record 1 <<
                                        ##   Cleanup
	.byte	0                       ##   No further actions
	.byte	1                       ## >> Action Record 2 <<
                                        ##   Catch TypeInfo 1
	.byte	125                     ##   Continue to action 1
	.byte	1                       ## >> Action Record 3 <<
                                        ##   Catch TypeInfo 1
	.byte	0                       ##   No further actions
                                        ## >> Catch TypeInfos <<
	.long	0                       ## TypeInfo 1
	.align	2

	.section	__TEXT,__text,regular,pure_instructions
	.globl	__ZN12ZPETokeniserC2Ev
	.weak_def_can_be_hidden	__ZN12ZPETokeniserC2Ev
	.align	4, 0x90
__ZN12ZPETokeniserC2Ev:                 ## @_ZN12ZPETokeniserC2Ev
	.cfi_startproc
## BB#0:
	pushq	%rbp
Ltmp436:
	.cfi_def_cfa_offset 16
Ltmp437:
	.cfi_offset %rbp, -16
	movq	%rsp, %rbp
Ltmp438:
	.cfi_def_cfa_register %rbp
	movq	__ZTV12ZPETokeniser@GOTPCREL(%rip), %rax
	addq	$16, %rax
	movq	%rdi, -8(%rbp)
	movq	-8(%rbp), %rdi
	movq	%rax, (%rdi)
	popq	%rbp
	retq
	.cfi_endproc

	.globl	__ZNSt3__111basic_regexIcNS_12regex_traitsIcEEEaSERKS3_
	.weak_def_can_be_hidden	__ZNSt3__111basic_regexIcNS_12regex_traitsIcEEEaSERKS3_
	.align	4, 0x90
__ZNSt3__111basic_regexIcNS_12regex_traitsIcEEEaSERKS3_: ## @_ZNSt3__111basic_regexIcNS_12regex_traitsIcEEEaSERKS3_
Lfunc_begin14:
	.cfi_startproc
	.cfi_personality 155, ___gxx_personality_v0
	.cfi_lsda 16, Lexception14
## BB#0:
	pushq	%rbp
Ltmp442:
	.cfi_def_cfa_offset 16
Ltmp443:
	.cfi_offset %rbp, -16
	movq	%rsp, %rbp
Ltmp444:
	.cfi_def_cfa_register %rbp
	subq	$272, %rsp              ## imm = 0x110
	movq	%rdi, -216(%rbp)
	movq	%rsi, -224(%rbp)
	movq	-216(%rbp), %rsi
	movq	-224(%rbp), %rdi
	movq	%rdi, -232(%rbp)        ## 8-byte Spill
	movq	%rsi, %rdi
	movq	-232(%rbp), %rax        ## 8-byte Reload
	movq	%rsi, -240(%rbp)        ## 8-byte Spill
	movq	%rax, %rsi
	callq	__ZNSt3__112regex_traitsIcEaSERKS1_
	leaq	-192(%rbp), %rsi
	movq	-224(%rbp), %rdi
	movq	24(%rdi), %rcx
	movq	-240(%rbp), %rdx        ## 8-byte Reload
	movq	%rcx, 24(%rdx)
	movq	32(%rdi), %rcx
	movq	%rcx, 32(%rdx)
	addq	$40, %rdx
	movq	-224(%rbp), %rcx
	addq	$40, %rcx
	movq	%rdx, -168(%rbp)
	movq	%rcx, -176(%rbp)
	movq	-168(%rbp), %rcx
	movq	-176(%rbp), %rdx
	movq	%rsi, -152(%rbp)
	movq	%rdx, -160(%rbp)
	movq	-152(%rbp), %rdx
	movq	-160(%rbp), %rsi
	movq	%rdx, -136(%rbp)
	movq	%rsi, -144(%rbp)
	movq	-136(%rbp), %rdx
	movq	-144(%rbp), %rsi
	movq	(%rsi), %rsi
	movq	%rsi, (%rdx)
	movq	-144(%rbp), %rsi
	movq	8(%rsi), %rsi
	movq	%rsi, 8(%rdx)
	cmpq	$0, 8(%rdx)
	movq	%rax, -248(%rbp)        ## 8-byte Spill
	movq	%rcx, -256(%rbp)        ## 8-byte Spill
	movq	%rdx, -264(%rbp)        ## 8-byte Spill
	je	LBB37_2
## BB#1:
	movq	-264(%rbp), %rax        ## 8-byte Reload
	movq	8(%rax), %rdi
	callq	__ZNSt3__119__shared_weak_count12__add_sharedEv
LBB37_2:
	leaq	-192(%rbp), %rax
	movq	%rax, -104(%rbp)
	movq	-256(%rbp), %rcx        ## 8-byte Reload
	movq	%rcx, -112(%rbp)
	movq	-104(%rbp), %rdx
	movq	%rdx, -80(%rbp)
	movq	%rcx, -88(%rbp)
	movq	-80(%rbp), %rsi
	movq	%rsi, -72(%rbp)
	movq	(%rsi), %rsi
	movq	%rsi, -96(%rbp)
	movq	-88(%rbp), %rsi
	movq	%rsi, -56(%rbp)
	movq	(%rsi), %rsi
	movq	-80(%rbp), %rdi
	movq	%rsi, (%rdi)
	leaq	-96(%rbp), %rsi
	movq	%rsi, -64(%rbp)
	movq	-96(%rbp), %rsi
	movq	-88(%rbp), %rdi
	movq	%rsi, (%rdi)
	addq	$8, %rdx
	movq	-112(%rbp), %rsi
	addq	$8, %rsi
	movq	%rdx, -32(%rbp)
	movq	%rsi, -40(%rbp)
	movq	-32(%rbp), %rdx
	movq	%rdx, -24(%rbp)
	movq	(%rdx), %rdx
	movq	%rdx, -48(%rbp)
	movq	-40(%rbp), %rdx
	movq	%rdx, -8(%rbp)
	movq	(%rdx), %rdx
	movq	-32(%rbp), %rsi
	movq	%rdx, (%rsi)
	leaq	-48(%rbp), %rdx
	movq	%rdx, -16(%rbp)
	movq	-48(%rbp), %rdx
	movq	-40(%rbp), %rsi
	movq	%rdx, (%rsi)
Ltmp439:
	movq	%rax, %rdi
	callq	__ZNSt3__110shared_ptrINS_13__empty_stateIcEEED1Ev
Ltmp440:
	jmp	LBB37_4
LBB37_3:
Ltmp441:
	movl	%edx, %ecx
	movq	%rax, -200(%rbp)
	movl	%ecx, -204(%rbp)
	movq	-200(%rbp), %rdi
	callq	___cxa_call_unexpected
LBB37_4:
	movq	-224(%rbp), %rax
	movq	56(%rax), %rax
	movq	-240(%rbp), %rcx        ## 8-byte Reload
	movq	%rax, 56(%rcx)
	movq	%rcx, %rax
	addq	$272, %rsp              ## imm = 0x110
	popq	%rbp
	retq
Lfunc_end14:
	.cfi_endproc
	.section	__TEXT,__gcc_except_tab
	.align	2
GCC_except_table37:
Lexception14:
	.byte	255                     ## @LPStart Encoding = omit
	.byte	155                     ## @TType Encoding = indirect pcrel sdata4
	.asciz	"\236\200\200"          ## @TType base offset
	.byte	3                       ## Call site Encoding = udata4
	.byte	26                      ## Call site table length
Lset370 = Ltmp439-Lfunc_begin14         ## >> Call Site 1 <<
	.long	Lset370
Lset371 = Ltmp440-Ltmp439               ##   Call between Ltmp439 and Ltmp440
	.long	Lset371
Lset372 = Ltmp441-Lfunc_begin14         ##     jumps to Ltmp441
	.long	Lset372
	.byte	1                       ##   On action: 1
Lset373 = Ltmp440-Lfunc_begin14         ## >> Call Site 2 <<
	.long	Lset373
Lset374 = Lfunc_end14-Ltmp440           ##   Call between Ltmp440 and Lfunc_end14
	.long	Lset374
	.long	0                       ##     has no landing pad
	.byte	0                       ##   On action: cleanup
	.byte	127                     ## >> Action Record 1 <<
                                        ##   Filter TypeInfo -1
	.byte	0                       ##   No further actions
                                        ## >> Filter TypeInfos <<
	.byte	0
	.align	2

	.section	__TEXT,__text,regular,pure_instructions
	.globl	__ZNSt3__111basic_regexIcNS_12regex_traitsIcEEED1Ev
	.weak_def_can_be_hidden	__ZNSt3__111basic_regexIcNS_12regex_traitsIcEEED1Ev
	.align	4, 0x90
__ZNSt3__111basic_regexIcNS_12regex_traitsIcEEED1Ev: ## @_ZNSt3__111basic_regexIcNS_12regex_traitsIcEEED1Ev
	.cfi_startproc
## BB#0:
	pushq	%rbp
Ltmp445:
	.cfi_def_cfa_offset 16
Ltmp446:
	.cfi_offset %rbp, -16
	movq	%rsp, %rbp
Ltmp447:
	.cfi_def_cfa_register %rbp
	subq	$16, %rsp
	movq	%rdi, -8(%rbp)
	movq	-8(%rbp), %rdi
	callq	__ZNSt3__111basic_regexIcNS_12regex_traitsIcEEED2Ev
	addq	$16, %rsp
	popq	%rbp
	retq
	.cfi_endproc

	.globl	__ZN13YASSByteCodes16StringToByteCodeENSt3__112basic_stringIcNS0_11char_traitsIcEENS0_9allocatorIcEEEE
	.weak_def_can_be_hidden	__ZN13YASSByteCodes16StringToByteCodeENSt3__112basic_stringIcNS0_11char_traitsIcEENS0_9allocatorIcEEEE
	.align	4, 0x90
__ZN13YASSByteCodes16StringToByteCodeENSt3__112basic_stringIcNS0_11char_traitsIcEENS0_9allocatorIcEEEE: ## @_ZN13YASSByteCodes16StringToByteCodeENSt3__112basic_stringIcNS0_11char_traitsIcEENS0_9allocatorIcEEEE
Lfunc_begin15:
	.cfi_startproc
	.cfi_personality 155, ___gxx_personality_v0
	.cfi_lsda 16, Lexception15
## BB#0:
	pushq	%rbp
Ltmp454:
	.cfi_def_cfa_offset 16
Ltmp455:
	.cfi_offset %rbp, -16
	movq	%rsp, %rbp
Ltmp456:
	.cfi_def_cfa_register %rbp
	subq	$720, %rsp              ## imm = 0x2D0
	movq	%rdi, -624(%rbp)
	movq	-624(%rbp), %rdi
	addq	$8, %rdi
	movq	%rsi, -576(%rbp)
	movq	%rdi, -584(%rbp)
	movl	$0, -588(%rbp)
	movq	-576(%rbp), %rdi
	movq	%rdi, -568(%rbp)
	movq	-568(%rbp), %rdi
	movq	%rdi, -552(%rbp)
	movq	-552(%rbp), %rdi
	movq	%rdi, -544(%rbp)
	movq	-544(%rbp), %rax
	movq	%rax, -536(%rbp)
	movq	-536(%rbp), %rax
	movq	%rax, -528(%rbp)
	movq	-528(%rbp), %rax
	movzbl	(%rax), %ecx
	andl	$1, %ecx
	cmpl	$0, %ecx
	movq	%rsi, -632(%rbp)        ## 8-byte Spill
	movq	%rdi, -640(%rbp)        ## 8-byte Spill
	je	LBB39_2
## BB#1:
	movq	-640(%rbp), %rax        ## 8-byte Reload
	movq	%rax, -480(%rbp)
	movq	-480(%rbp), %rcx
	movq	%rcx, -472(%rbp)
	movq	-472(%rbp), %rcx
	movq	%rcx, -464(%rbp)
	movq	-464(%rbp), %rcx
	movq	16(%rcx), %rcx
	movq	%rcx, -648(%rbp)        ## 8-byte Spill
	jmp	LBB39_3
LBB39_2:
	movq	-640(%rbp), %rax        ## 8-byte Reload
	movq	%rax, -520(%rbp)
	movq	-520(%rbp), %rcx
	movq	%rcx, -512(%rbp)
	movq	-512(%rbp), %rcx
	movq	%rcx, -504(%rbp)
	movq	-504(%rbp), %rcx
	addq	$1, %rcx
	movq	%rcx, -496(%rbp)
	movq	-496(%rbp), %rcx
	movq	%rcx, -488(%rbp)
	movq	-488(%rbp), %rcx
	movq	%rcx, -648(%rbp)        ## 8-byte Spill
LBB39_3:
	movq	-648(%rbp), %rax        ## 8-byte Reload
	leaq	-560(%rbp), %rcx
	movq	%rcx, -448(%rbp)
	movq	%rax, -456(%rbp)
	movq	-448(%rbp), %rax
	movq	-456(%rbp), %rcx
	movq	%rax, -432(%rbp)
	movq	%rcx, -440(%rbp)
	movq	-432(%rbp), %rax
	movq	-440(%rbp), %rcx
	movq	%rcx, (%rax)
	movq	-560(%rbp), %rax
	movq	%rax, -600(%rbp)
	movq	-576(%rbp), %rax
	movq	%rax, -224(%rbp)
	movq	-224(%rbp), %rax
	movq	%rax, -208(%rbp)
	movq	-208(%rbp), %rcx
	movq	%rcx, -200(%rbp)
	movq	-200(%rbp), %rdx
	movq	%rdx, -192(%rbp)
	movq	-192(%rbp), %rdx
	movq	%rdx, -184(%rbp)
	movq	-184(%rbp), %rdx
	movzbl	(%rdx), %esi
	andl	$1, %esi
	cmpl	$0, %esi
	movq	%rax, -656(%rbp)        ## 8-byte Spill
	movq	%rcx, -664(%rbp)        ## 8-byte Spill
	je	LBB39_5
## BB#4:
	movq	-664(%rbp), %rax        ## 8-byte Reload
	movq	%rax, -136(%rbp)
	movq	-136(%rbp), %rcx
	movq	%rcx, -128(%rbp)
	movq	-128(%rbp), %rcx
	movq	%rcx, -120(%rbp)
	movq	-120(%rbp), %rcx
	movq	16(%rcx), %rcx
	movq	%rcx, -672(%rbp)        ## 8-byte Spill
	jmp	LBB39_6
LBB39_5:
	movq	-664(%rbp), %rax        ## 8-byte Reload
	movq	%rax, -176(%rbp)
	movq	-176(%rbp), %rcx
	movq	%rcx, -168(%rbp)
	movq	-168(%rbp), %rcx
	movq	%rcx, -160(%rbp)
	movq	-160(%rbp), %rcx
	addq	$1, %rcx
	movq	%rcx, -152(%rbp)
	movq	-152(%rbp), %rcx
	movq	%rcx, -144(%rbp)
	movq	-144(%rbp), %rcx
	movq	%rcx, -672(%rbp)        ## 8-byte Spill
LBB39_6:
	movq	-672(%rbp), %rax        ## 8-byte Reload
	movq	-656(%rbp), %rcx        ## 8-byte Reload
	movq	%rcx, -80(%rbp)
	movq	-80(%rbp), %rdx
	movq	%rdx, -72(%rbp)
	movq	-72(%rbp), %rsi
	movq	%rsi, -64(%rbp)
	movq	-64(%rbp), %rsi
	movq	%rsi, -56(%rbp)
	movq	-56(%rbp), %rsi
	movzbl	(%rsi), %edi
	andl	$1, %edi
	cmpl	$0, %edi
	movq	%rax, -680(%rbp)        ## 8-byte Spill
	movq	%rdx, -688(%rbp)        ## 8-byte Spill
	je	LBB39_8
## BB#7:
	movq	-688(%rbp), %rax        ## 8-byte Reload
	movq	%rax, -24(%rbp)
	movq	-24(%rbp), %rcx
	movq	%rcx, -16(%rbp)
	movq	-16(%rbp), %rcx
	movq	%rcx, -8(%rbp)
	movq	-8(%rbp), %rcx
	movq	8(%rcx), %rcx
	movq	%rcx, -696(%rbp)        ## 8-byte Spill
	jmp	LBB39_9
LBB39_8:
	movq	-688(%rbp), %rax        ## 8-byte Reload
	movq	%rax, -48(%rbp)
	movq	-48(%rbp), %rcx
	movq	%rcx, -40(%rbp)
	movq	-40(%rbp), %rcx
	movq	%rcx, -32(%rbp)
	movq	-32(%rbp), %rcx
	movzbl	(%rcx), %edx
	sarl	$1, %edx
	movslq	%edx, %rcx
	movq	%rcx, -696(%rbp)        ## 8-byte Spill
LBB39_9:
	movq	-696(%rbp), %rax        ## 8-byte Reload
	movq	-680(%rbp), %rcx        ## 8-byte Reload
	addq	%rax, %rcx
	leaq	-216(%rbp), %rax
	movq	%rax, -104(%rbp)
	movq	%rcx, -112(%rbp)
	movq	-104(%rbp), %rax
	movq	%rax, -88(%rbp)
	movq	%rcx, -96(%rbp)
	movq	-88(%rbp), %rax
	movq	%rcx, (%rax)
	movq	-216(%rbp), %rax
	movq	%rax, -608(%rbp)
	movq	-584(%rbp), %rcx
	movl	-588(%rbp), %edx
	movq	-600(%rbp), %rsi
	movq	%rsi, -248(%rbp)
	movq	%rax, -256(%rbp)
	movq	%rcx, -264(%rbp)
	movl	%edx, -268(%rbp)
	leaq	-392(%rbp), %rax
	movq	%rax, -240(%rbp)
	movq	%rax, -232(%rbp)
	leaq	-384(%rbp), %rcx
	movq	%rcx, %rdi
	movq	%rax, %rsi
	movq	%rcx, -704(%rbp)        ## 8-byte Spill
	callq	__ZNSt3__113match_resultsINS_11__wrap_iterIPKcEENS_9allocatorINS_9sub_matchIS4_EEEEEC1ERKS8_
	movq	-248(%rbp), %rax
	movq	%rax, -400(%rbp)
	movq	-256(%rbp), %rax
	movq	%rax, -408(%rbp)
	movq	-264(%rbp), %rcx
	movl	-268(%rbp), %r8d
	movq	-400(%rbp), %rdi
Ltmp448:
	movq	%rax, %rsi
	movq	-704(%rbp), %rdx        ## 8-byte Reload
	callq	__ZNSt3__111regex_matchINS_11__wrap_iterIPKcEENS_9allocatorINS_9sub_matchIS4_EEEEcNS_12regex_traitsIcEEEEbT_SB_RNS_13match_resultsISB_T0_EERKNS_11basic_regexIT1_T2_EENS_15regex_constants15match_flag_typeE
Ltmp449:
	movb	%al, -705(%rbp)         ## 1-byte Spill
	jmp	LBB39_13
LBB39_10:
Ltmp450:
	movl	%edx, %ecx
	movq	%rax, -416(%rbp)
	movl	%ecx, -420(%rbp)
Ltmp451:
	leaq	-384(%rbp), %rdi
	callq	__ZNSt3__113match_resultsINS_11__wrap_iterIPKcEENS_9allocatorINS_9sub_matchIS4_EEEEED1Ev
Ltmp452:
	jmp	LBB39_11
LBB39_11:
	movq	-416(%rbp), %rdi
	callq	__Unwind_Resume
LBB39_12:
Ltmp453:
	movl	%edx, %ecx
	movq	%rax, %rdi
	movl	%ecx, -712(%rbp)        ## 4-byte Spill
	callq	___clang_call_terminate
LBB39_13:
	leaq	-384(%rbp), %rdi
	callq	__ZNSt3__113match_resultsINS_11__wrap_iterIPKcEENS_9allocatorINS_9sub_matchIS4_EEEEED1Ev
	movb	-705(%rbp), %al         ## 1-byte Reload
	testb	$1, %al
	jne	LBB39_14
	jmp	LBB39_15
LBB39_14:
	movw	$4, -610(%rbp)
	jmp	LBB39_18
LBB39_15:
	leaq	L_.str.18(%rip), %rsi
	movq	-632(%rbp), %rdi        ## 8-byte Reload
	callq	__ZNKSt3__112basic_stringIcNS_11char_traitsIcEENS_9allocatorIcEEE7compareEPKc
	cmpl	$0, %eax
	jne	LBB39_17
## BB#16:
	movw	$30, -610(%rbp)
	jmp	LBB39_18
LBB39_17:
	movw	$-2, -610(%rbp)
LBB39_18:
	movswl	-610(%rbp), %eax
	addq	$720, %rsp              ## imm = 0x2D0
	popq	%rbp
	retq
Lfunc_end15:
	.cfi_endproc
	.section	__TEXT,__gcc_except_tab
	.align	2
GCC_except_table39:
Lexception15:
	.byte	255                     ## @LPStart Encoding = omit
	.byte	155                     ## @TType Encoding = indirect pcrel sdata4
	.asciz	"\274"                  ## @TType base offset
	.byte	3                       ## Call site Encoding = udata4
	.byte	52                      ## Call site table length
Lset375 = Lfunc_begin15-Lfunc_begin15   ## >> Call Site 1 <<
	.long	Lset375
Lset376 = Ltmp448-Lfunc_begin15         ##   Call between Lfunc_begin15 and Ltmp448
	.long	Lset376
	.long	0                       ##     has no landing pad
	.byte	0                       ##   On action: cleanup
Lset377 = Ltmp448-Lfunc_begin15         ## >> Call Site 2 <<
	.long	Lset377
Lset378 = Ltmp449-Ltmp448               ##   Call between Ltmp448 and Ltmp449
	.long	Lset378
Lset379 = Ltmp450-Lfunc_begin15         ##     jumps to Ltmp450
	.long	Lset379
	.byte	0                       ##   On action: cleanup
Lset380 = Ltmp451-Lfunc_begin15         ## >> Call Site 3 <<
	.long	Lset380
Lset381 = Ltmp452-Ltmp451               ##   Call between Ltmp451 and Ltmp452
	.long	Lset381
Lset382 = Ltmp453-Lfunc_begin15         ##     jumps to Ltmp453
	.long	Lset382
	.byte	1                       ##   On action: 1
Lset383 = Ltmp452-Lfunc_begin15         ## >> Call Site 4 <<
	.long	Lset383
Lset384 = Lfunc_end15-Ltmp452           ##   Call between Ltmp452 and Lfunc_end15
	.long	Lset384
	.long	0                       ##     has no landing pad
	.byte	0                       ##   On action: cleanup
	.byte	1                       ## >> Action Record 1 <<
                                        ##   Catch TypeInfo 1
	.byte	0                       ##   No further actions
                                        ## >> Catch TypeInfos <<
	.long	0                       ## TypeInfo 1
	.align	2

	.section	__TEXT,__text,regular,pure_instructions
	.globl	__ZN13YASSByteCodes14SymbolToStringEs
	.weak_def_can_be_hidden	__ZN13YASSByteCodes14SymbolToStringEs
	.align	4, 0x90
__ZN13YASSByteCodes14SymbolToStringEs:  ## @_ZN13YASSByteCodes14SymbolToStringEs
	.cfi_startproc
## BB#0:
	pushq	%rbp
Ltmp457:
	.cfi_def_cfa_offset 16
Ltmp458:
	.cfi_offset %rbp, -16
	movq	%rsp, %rbp
Ltmp459:
	.cfi_def_cfa_register %rbp
	subq	$112, %rsp
	movw	%dx, %ax
	movq	%rdi, %rcx
	xorl	%edx, %edx
	movl	$24, %r8d
	movl	%r8d, %r9d
	leaq	L_.str.14(%rip), %r10
	movq	%rsi, -72(%rbp)
	movw	%ax, -74(%rbp)
	movq	%rdi, -56(%rbp)
	movq	%r10, -64(%rbp)
	movq	-56(%rbp), %rsi
	movq	-64(%rbp), %rdi
	movq	%rsi, -40(%rbp)
	movq	%rdi, -48(%rbp)
	movq	-40(%rbp), %rsi
	movq	%rsi, -32(%rbp)
	movq	-32(%rbp), %rdi
	movq	%rdi, -24(%rbp)
	movq	-24(%rbp), %rdi
	movq	%rdi, -16(%rbp)
	movq	-16(%rbp), %rdi
	movq	%rdi, %r10
	movq	%r10, -8(%rbp)
	movq	%rsi, -88(%rbp)         ## 8-byte Spill
	movl	%edx, %esi
	movq	%r9, %rdx
	movq	%rcx, -96(%rbp)         ## 8-byte Spill
	callq	_memset
	movq	-48(%rbp), %rsi
	movq	-48(%rbp), %rdi
	movq	%rsi, -104(%rbp)        ## 8-byte Spill
	callq	__ZNSt3__111char_traitsIcE6lengthEPKc
	movq	-88(%rbp), %rdi         ## 8-byte Reload
	movq	-104(%rbp), %rsi        ## 8-byte Reload
	movq	%rax, %rdx
	callq	__ZNSt3__112basic_stringIcNS_11char_traitsIcEENS_9allocatorIcEEE6__initEPKcm
	movq	-96(%rbp), %rax         ## 8-byte Reload
	addq	$112, %rsp
	popq	%rbp
	retq
	.cfi_endproc

	.globl	__ZN12ZPETokeniser16StringToByteCodeENSt3__112basic_stringIcNS0_11char_traitsIcEENS0_9allocatorIcEEEE
	.weak_def_can_be_hidden	__ZN12ZPETokeniser16StringToByteCodeENSt3__112basic_stringIcNS0_11char_traitsIcEENS0_9allocatorIcEEEE
	.align	4, 0x90
__ZN12ZPETokeniser16StringToByteCodeENSt3__112basic_stringIcNS0_11char_traitsIcEENS0_9allocatorIcEEEE: ## @_ZN12ZPETokeniser16StringToByteCodeENSt3__112basic_stringIcNS0_11char_traitsIcEENS0_9allocatorIcEEEE
	.cfi_startproc
## BB#0:
	pushq	%rbp
Ltmp460:
	.cfi_def_cfa_offset 16
Ltmp461:
	.cfi_offset %rbp, -16
	movq	%rsp, %rbp
Ltmp462:
	.cfi_def_cfa_register %rbp
	xorl	%eax, %eax
	movw	%ax, %cx
	movq	%rdi, -8(%rbp)
	movswl	%cx, %eax
	movq	%rsi, -16(%rbp)         ## 8-byte Spill
	popq	%rbp
	retq
	.cfi_endproc

	.globl	__ZN12ZPETokeniser14SymbolToStringEs
	.weak_def_can_be_hidden	__ZN12ZPETokeniser14SymbolToStringEs
	.align	4, 0x90
__ZN12ZPETokeniser14SymbolToStringEs:   ## @_ZN12ZPETokeniser14SymbolToStringEs
	.cfi_startproc
## BB#0:
	pushq	%rbp
Ltmp463:
	.cfi_def_cfa_offset 16
Ltmp464:
	.cfi_offset %rbp, -16
	movq	%rsp, %rbp
Ltmp465:
	.cfi_def_cfa_register %rbp
	subq	$112, %rsp
	movw	%dx, %ax
	movq	%rdi, %rcx
	xorl	%edx, %edx
	movl	$24, %r8d
	movl	%r8d, %r9d
	leaq	L_.str.4(%rip), %r10
	movq	%rsi, -72(%rbp)
	movw	%ax, -74(%rbp)
	movq	%rdi, -56(%rbp)
	movq	%r10, -64(%rbp)
	movq	-56(%rbp), %rsi
	movq	-64(%rbp), %rdi
	movq	%rsi, -40(%rbp)
	movq	%rdi, -48(%rbp)
	movq	-40(%rbp), %rsi
	movq	%rsi, -32(%rbp)
	movq	-32(%rbp), %rdi
	movq	%rdi, -24(%rbp)
	movq	-24(%rbp), %rdi
	movq	%rdi, -16(%rbp)
	movq	-16(%rbp), %rdi
	movq	%rdi, %r10
	movq	%r10, -8(%rbp)
	movq	%rsi, -88(%rbp)         ## 8-byte Spill
	movl	%edx, %esi
	movq	%r9, %rdx
	movq	%rcx, -96(%rbp)         ## 8-byte Spill
	callq	_memset
	movq	-48(%rbp), %rsi
	movq	-48(%rbp), %rdi
	movq	%rsi, -104(%rbp)        ## 8-byte Spill
	callq	__ZNSt3__111char_traitsIcE6lengthEPKc
	movq	-88(%rbp), %rdi         ## 8-byte Reload
	movq	-104(%rbp), %rsi        ## 8-byte Reload
	movq	%rax, %rdx
	callq	__ZNSt3__112basic_stringIcNS_11char_traitsIcEENS_9allocatorIcEEE6__initEPKcm
	movq	-96(%rbp), %rax         ## 8-byte Reload
	addq	$112, %rsp
	popq	%rbp
	retq
	.cfi_endproc

	.globl	__ZNSt3__112regex_traitsIcEC1Ev
	.weak_def_can_be_hidden	__ZNSt3__112regex_traitsIcEC1Ev
	.align	4, 0x90
__ZNSt3__112regex_traitsIcEC1Ev:        ## @_ZNSt3__112regex_traitsIcEC1Ev
	.cfi_startproc
## BB#0:
	pushq	%rbp
Ltmp466:
	.cfi_def_cfa_offset 16
Ltmp467:
	.cfi_offset %rbp, -16
	movq	%rsp, %rbp
Ltmp468:
	.cfi_def_cfa_register %rbp
	subq	$16, %rsp
	movq	%rdi, -8(%rbp)
	movq	-8(%rbp), %rdi
	callq	__ZNSt3__112regex_traitsIcEC2Ev
	addq	$16, %rsp
	popq	%rbp
	retq
	.cfi_endproc

	.globl	__ZNSt3__112regex_traitsIcEC2Ev
	.weak_def_can_be_hidden	__ZNSt3__112regex_traitsIcEC2Ev
	.align	4, 0x90
__ZNSt3__112regex_traitsIcEC2Ev:        ## @_ZNSt3__112regex_traitsIcEC2Ev
Lfunc_begin16:
	.cfi_startproc
	.cfi_personality 155, ___gxx_personality_v0
	.cfi_lsda 16, Lexception16
## BB#0:
	pushq	%rbp
Ltmp475:
	.cfi_def_cfa_offset 16
Ltmp476:
	.cfi_offset %rbp, -16
	movq	%rsp, %rbp
Ltmp477:
	.cfi_def_cfa_register %rbp
	subq	$48, %rsp
	movq	%rdi, -8(%rbp)
	movq	%rdi, %rax
	movq	%rdi, -32(%rbp)         ## 8-byte Spill
	movq	%rax, -40(%rbp)         ## 8-byte Spill
	callq	__ZNSt3__16localeC1Ev
Ltmp469:
	movq	-32(%rbp), %rdi         ## 8-byte Reload
	callq	__ZNSt3__112regex_traitsIcE6__initEv
Ltmp470:
	jmp	LBB44_1
LBB44_1:
	addq	$48, %rsp
	popq	%rbp
	retq
LBB44_2:
Ltmp471:
	movl	%edx, %ecx
	movq	%rax, -16(%rbp)
	movl	%ecx, -20(%rbp)
Ltmp472:
	movq	-40(%rbp), %rdi         ## 8-byte Reload
	callq	__ZNSt3__16localeD1Ev
Ltmp473:
	jmp	LBB44_3
LBB44_3:
	jmp	LBB44_4
LBB44_4:
	movq	-16(%rbp), %rdi
	callq	__Unwind_Resume
LBB44_5:
Ltmp474:
	movl	%edx, %ecx
	movq	%rax, %rdi
	movl	%ecx, -44(%rbp)         ## 4-byte Spill
	callq	___clang_call_terminate
Lfunc_end16:
	.cfi_endproc
	.section	__TEXT,__gcc_except_tab
	.align	2
GCC_except_table44:
Lexception16:
	.byte	255                     ## @LPStart Encoding = omit
	.byte	155                     ## @TType Encoding = indirect pcrel sdata4
	.asciz	"\257\200"              ## @TType base offset
	.byte	3                       ## Call site Encoding = udata4
	.byte	39                      ## Call site table length
Lset385 = Ltmp469-Lfunc_begin16         ## >> Call Site 1 <<
	.long	Lset385
Lset386 = Ltmp470-Ltmp469               ##   Call between Ltmp469 and Ltmp470
	.long	Lset386
Lset387 = Ltmp471-Lfunc_begin16         ##     jumps to Ltmp471
	.long	Lset387
	.byte	0                       ##   On action: cleanup
Lset388 = Ltmp472-Lfunc_begin16         ## >> Call Site 2 <<
	.long	Lset388
Lset389 = Ltmp473-Ltmp472               ##   Call between Ltmp472 and Ltmp473
	.long	Lset389
Lset390 = Ltmp474-Lfunc_begin16         ##     jumps to Ltmp474
	.long	Lset390
	.byte	1                       ##   On action: 1
Lset391 = Ltmp473-Lfunc_begin16         ## >> Call Site 3 <<
	.long	Lset391
Lset392 = Lfunc_end16-Ltmp473           ##   Call between Ltmp473 and Lfunc_end16
	.long	Lset392
	.long	0                       ##     has no landing pad
	.byte	0                       ##   On action: cleanup
	.byte	1                       ## >> Action Record 1 <<
                                        ##   Catch TypeInfo 1
	.byte	0                       ##   No further actions
                                        ## >> Catch TypeInfos <<
	.long	0                       ## TypeInfo 1
	.align	2

	.section	__TEXT,__text,regular,pure_instructions
	.globl	__ZNSt3__112regex_traitsIcE6__initEv
	.weak_def_can_be_hidden	__ZNSt3__112regex_traitsIcE6__initEv
	.align	4, 0x90
__ZNSt3__112regex_traitsIcE6__initEv:   ## @_ZNSt3__112regex_traitsIcE6__initEv
	.cfi_startproc
## BB#0:
	pushq	%rbp
Ltmp478:
	.cfi_def_cfa_offset 16
Ltmp479:
	.cfi_offset %rbp, -16
	movq	%rsp, %rbp
Ltmp480:
	.cfi_def_cfa_register %rbp
	subq	$32, %rsp
	movq	__ZNSt3__15ctypeIcE2idE@GOTPCREL(%rip), %rsi
	movq	%rdi, -24(%rbp)
	movq	-24(%rbp), %rdi
	movq	%rdi, -16(%rbp)
	movq	-16(%rbp), %rax
	movq	%rdi, -32(%rbp)         ## 8-byte Spill
	movq	%rax, %rdi
	callq	__ZNKSt3__16locale9use_facetERNS0_2idE
	movq	__ZNSt3__17collateIcE2idE@GOTPCREL(%rip), %rsi
	movq	-32(%rbp), %rdi         ## 8-byte Reload
	movq	%rax, 8(%rdi)
	movq	%rdi, -8(%rbp)
	movq	-8(%rbp), %rdi
	callq	__ZNKSt3__16locale9use_facetERNS0_2idE
	movq	-32(%rbp), %rsi         ## 8-byte Reload
	movq	%rax, 16(%rsi)
	addq	$32, %rsp
	popq	%rbp
	retq
	.cfi_endproc

	.globl	__ZNSt3__112regex_traitsIcEaSERKS1_
	.weak_def_can_be_hidden	__ZNSt3__112regex_traitsIcEaSERKS1_
	.align	4, 0x90
__ZNSt3__112regex_traitsIcEaSERKS1_:    ## @_ZNSt3__112regex_traitsIcEaSERKS1_
	.cfi_startproc
## BB#0:
	pushq	%rbp
Ltmp481:
	.cfi_def_cfa_offset 16
Ltmp482:
	.cfi_offset %rbp, -16
	movq	%rsp, %rbp
Ltmp483:
	.cfi_def_cfa_register %rbp
	subq	$48, %rsp
	movq	%rdi, -8(%rbp)
	movq	%rsi, -16(%rbp)
	movq	-8(%rbp), %rsi
	movq	-16(%rbp), %rdi
	movq	%rdi, -24(%rbp)         ## 8-byte Spill
	movq	%rsi, %rdi
	movq	-24(%rbp), %rax         ## 8-byte Reload
	movq	%rsi, -32(%rbp)         ## 8-byte Spill
	movq	%rax, %rsi
	callq	__ZNSt3__16localeaSERKS0_
	movq	-16(%rbp), %rsi
	movq	8(%rsi), %rdi
	movq	-32(%rbp), %rcx         ## 8-byte Reload
	movq	%rdi, 8(%rcx)
	movq	16(%rsi), %rsi
	movq	%rsi, 16(%rcx)
	movq	%rax, -40(%rbp)         ## 8-byte Spill
	movq	%rcx, %rax
	addq	$48, %rsp
	popq	%rbp
	retq
	.cfi_endproc

	.globl	__ZNSt3__110shared_ptrINS_13__empty_stateIcEEED1Ev
	.weak_def_can_be_hidden	__ZNSt3__110shared_ptrINS_13__empty_stateIcEEED1Ev
	.align	4, 0x90
__ZNSt3__110shared_ptrINS_13__empty_stateIcEEED1Ev: ## @_ZNSt3__110shared_ptrINS_13__empty_stateIcEEED1Ev
	.cfi_startproc
## BB#0:
	pushq	%rbp
Ltmp484:
	.cfi_def_cfa_offset 16
Ltmp485:
	.cfi_offset %rbp, -16
	movq	%rsp, %rbp
Ltmp486:
	.cfi_def_cfa_register %rbp
	subq	$16, %rsp
	movq	%rdi, -8(%rbp)
	movq	-8(%rbp), %rdi
	callq	__ZNSt3__110shared_ptrINS_13__empty_stateIcEEED2Ev
	addq	$16, %rsp
	popq	%rbp
	retq
	.cfi_endproc

	.globl	__ZNSt3__110shared_ptrINS_13__empty_stateIcEEED2Ev
	.weak_def_can_be_hidden	__ZNSt3__110shared_ptrINS_13__empty_stateIcEEED2Ev
	.align	4, 0x90
__ZNSt3__110shared_ptrINS_13__empty_stateIcEEED2Ev: ## @_ZNSt3__110shared_ptrINS_13__empty_stateIcEEED2Ev
	.cfi_startproc
## BB#0:
	pushq	%rbp
Ltmp487:
	.cfi_def_cfa_offset 16
Ltmp488:
	.cfi_offset %rbp, -16
	movq	%rsp, %rbp
Ltmp489:
	.cfi_def_cfa_register %rbp
	subq	$16, %rsp
	movq	%rdi, -8(%rbp)
	movq	-8(%rbp), %rdi
	cmpq	$0, 8(%rdi)
	movq	%rdi, -16(%rbp)         ## 8-byte Spill
	je	LBB48_2
## BB#1:
	movq	-16(%rbp), %rax         ## 8-byte Reload
	movq	8(%rax), %rdi
	callq	__ZNSt3__119__shared_weak_count16__release_sharedEv
LBB48_2:
	addq	$16, %rsp
	popq	%rbp
	retq
	.cfi_endproc

	.globl	__ZNSt3__111basic_regexIcNS_12regex_traitsIcEEE7__parseIPKcEET_S7_S7_
	.weak_def_can_be_hidden	__ZNSt3__111basic_regexIcNS_12regex_traitsIcEEE7__parseIPKcEET_S7_S7_
	.align	4, 0x90
__ZNSt3__111basic_regexIcNS_12regex_traitsIcEEE7__parseIPKcEET_S7_S7_: ## @_ZNSt3__111basic_regexIcNS_12regex_traitsIcEEE7__parseIPKcEET_S7_S7_
Lfunc_begin17:
	.cfi_startproc
	.cfi_personality 155, ___gxx_personality_v0
	.cfi_lsda 16, Lexception17
## BB#0:
	pushq	%rbp
Ltmp506:
	.cfi_def_cfa_offset 16
Ltmp507:
	.cfi_offset %rbp, -16
	movq	%rsp, %rbp
Ltmp508:
	.cfi_def_cfa_register %rbp
	subq	$912, %rsp              ## imm = 0x390
	movl	$8, %eax
	movl	%eax, %ecx
	movq	%rdi, -736(%rbp)
	movq	%rsi, -744(%rbp)
	movq	%rdx, -752(%rbp)
	movq	-736(%rbp), %rdx
	movq	%rcx, %rdi
	movq	%rdx, -784(%rbp)        ## 8-byte Spill
	callq	__Znwm
	movq	__ZTVNSt3__111__end_stateIcEE@GOTPCREL(%rip), %rcx
	addq	$16, %rcx
	movq	__ZTVNSt3__16__nodeIcEE@GOTPCREL(%rip), %rdx
	addq	$16, %rdx
	movq	%rax, -464(%rbp)
	movq	-464(%rbp), %rsi
	movq	%rsi, -456(%rbp)
	movq	-456(%rbp), %rsi
	movq	%rsi, %rdi
	movq	%rdi, -448(%rbp)
	movq	-448(%rbp), %rdi
	movq	%rdx, (%rdi)
	movq	%rcx, (%rsi)
	movq	%rax, -792(%rbp)        ## 8-byte Spill
## BB#1:
	leaq	-760(%rbp), %rax
	movq	%rax, -432(%rbp)
	movq	-792(%rbp), %rax        ## 8-byte Reload
	movq	%rax, -440(%rbp)
	movq	-432(%rbp), %rcx
	movq	%rcx, -400(%rbp)
	movq	%rax, -408(%rbp)
	movq	-400(%rbp), %rcx
	leaq	-408(%rbp), %rdx
	movq	%rdx, -392(%rbp)
	movq	-408(%rbp), %rdx
	movq	%rcx, -376(%rbp)
	movq	%rdx, -384(%rbp)
	movq	-376(%rbp), %rcx
	movq	%rcx, -360(%rbp)
	movq	%rdx, -368(%rbp)
	movq	-360(%rbp), %rcx
	leaq	-368(%rbp), %rdx
	movq	%rdx, -352(%rbp)
	movq	-368(%rbp), %rdx
	movq	%rcx, -336(%rbp)
	movq	%rdx, -344(%rbp)
	movq	-336(%rbp), %rcx
	movq	%rcx, -328(%rbp)
	leaq	-344(%rbp), %rdx
	movq	%rdx, -320(%rbp)
	movq	-344(%rbp), %rdx
	movq	%rdx, (%rcx)
	movq	-784(%rbp), %rcx        ## 8-byte Reload
	addq	$40, %rcx
Ltmp490:
	movl	$16, %esi
	movl	%esi, %edi
	movq	%rcx, -800(%rbp)        ## 8-byte Spill
	callq	__Znwm
Ltmp491:
	movq	%rax, -808(%rbp)        ## 8-byte Spill
	jmp	LBB49_2
LBB49_2:
	movq	__ZTVNSt3__113__empty_stateIcEE@GOTPCREL(%rip), %rax
	addq	$16, %rax
	movq	__ZTVNSt3__116__owns_one_stateIcEE@GOTPCREL(%rip), %rcx
	addq	$16, %rcx
	movq	__ZTVNSt3__115__has_one_stateIcEE@GOTPCREL(%rip), %rdx
	addq	$16, %rdx
	movq	__ZTVNSt3__16__nodeIcEE@GOTPCREL(%rip), %rsi
	addq	$16, %rsi
	leaq	-760(%rbp), %rdi
	movq	-808(%rbp), %r8         ## 8-byte Reload
	movq	%rdi, -312(%rbp)
	movq	-312(%rbp), %rdi
	movq	%rdi, -304(%rbp)
	movq	-304(%rbp), %rdi
	movq	%rdi, -296(%rbp)
	movq	-296(%rbp), %rdi
	movq	(%rdi), %rdi
	movq	%r8, -280(%rbp)
	movq	%rdi, -288(%rbp)
	movq	-280(%rbp), %rdi
	movq	-288(%rbp), %r9
	movq	%rdi, -264(%rbp)
	movq	%r9, -272(%rbp)
	movq	-264(%rbp), %rdi
	movq	%rdi, %r9
	movq	-272(%rbp), %r10
	movq	%r9, -248(%rbp)
	movq	%r10, -256(%rbp)
	movq	-248(%rbp), %r9
	movq	%r9, %r10
	movq	-256(%rbp), %r11
	movq	%r10, -232(%rbp)
	movq	%r11, -240(%rbp)
	movq	-232(%rbp), %r10
	movq	%r10, %r11
	movq	%r11, -224(%rbp)
	movq	-224(%rbp), %r11
	movq	%rsi, (%r11)
	movq	%rdx, (%r10)
	movq	-240(%rbp), %rdx
	movq	%rdx, 8(%r10)
	movq	%rcx, (%r9)
	movq	%rax, (%rdi)
	movq	%r8, -816(%rbp)         ## 8-byte Spill
## BB#3:
	movq	-800(%rbp), %rax        ## 8-byte Reload
	movq	%rax, -184(%rbp)
	movq	-816(%rbp), %rcx        ## 8-byte Reload
	movq	%rcx, -192(%rbp)
	movq	-184(%rbp), %rdx
	movl	$0, -216(%rbp)
Ltmp492:
	leaq	-208(%rbp), %rdi
	xorl	%esi, %esi
	movl	%esi, -820(%rbp)        ## 4-byte Spill
	movq	%rcx, %rsi
	movl	-820(%rbp), %r8d        ## 4-byte Reload
	movq	%rdx, -832(%rbp)        ## 8-byte Spill
	movl	%r8d, %edx
	callq	__ZNSt3__110shared_ptrINS_13__empty_stateIcEEEC1IS2_EEPT_NS_9enable_ifIXsr14is_convertibleIS6_PS2_EE5valueENS3_5__natEE4typeE
Ltmp493:
	jmp	LBB49_4
LBB49_4:
	leaq	-208(%rbp), %rax
	movq	%rax, -152(%rbp)
	movq	-832(%rbp), %rcx        ## 8-byte Reload
	movq	%rcx, -160(%rbp)
	movq	-152(%rbp), %rdx
	movq	%rdx, -128(%rbp)
	movq	%rcx, -136(%rbp)
	movq	-128(%rbp), %rsi
	movq	%rsi, -120(%rbp)
	movq	(%rsi), %rsi
	movq	%rsi, -144(%rbp)
	movq	-136(%rbp), %rsi
	movq	%rsi, -104(%rbp)
	movq	(%rsi), %rsi
	movq	-128(%rbp), %rdi
	movq	%rsi, (%rdi)
	leaq	-144(%rbp), %rsi
	movq	%rsi, -112(%rbp)
	movq	-144(%rbp), %rsi
	movq	-136(%rbp), %rdi
	movq	%rsi, (%rdi)
	addq	$8, %rdx
	movq	-160(%rbp), %rsi
	addq	$8, %rsi
	movq	%rdx, -80(%rbp)
	movq	%rsi, -88(%rbp)
	movq	-80(%rbp), %rdx
	movq	%rdx, -72(%rbp)
	movq	(%rdx), %rdx
	movq	%rdx, -96(%rbp)
	movq	-88(%rbp), %rdx
	movq	%rdx, -56(%rbp)
	movq	(%rdx), %rdx
	movq	-80(%rbp), %rsi
	movq	%rdx, (%rsi)
	leaq	-96(%rbp), %rdx
	movq	%rdx, -64(%rbp)
	movq	-96(%rbp), %rdx
	movq	-88(%rbp), %rsi
	movq	%rdx, (%rsi)
Ltmp494:
	movq	%rax, %rdi
	callq	__ZNSt3__110shared_ptrINS_13__empty_stateIcEEED1Ev
Ltmp495:
	jmp	LBB49_5
LBB49_5:
	jmp	LBB49_6
LBB49_6:
	leaq	-760(%rbp), %rax
	movq	%rax, -40(%rbp)
	movq	-40(%rbp), %rcx
	movq	%rcx, -32(%rbp)
	movq	-32(%rbp), %rdx
	movq	%rdx, -24(%rbp)
	movq	-24(%rbp), %rdx
	movq	(%rdx), %rdx
	movq	%rdx, -48(%rbp)
	movq	%rcx, -16(%rbp)
	movq	-16(%rbp), %rcx
	movq	%rcx, -8(%rbp)
	movq	-8(%rbp), %rcx
	movq	$0, (%rcx)
	movq	-784(%rbp), %rcx        ## 8-byte Reload
	addq	$40, %rcx
	movq	%rcx, -472(%rbp)
	movq	-472(%rbp), %rcx
	movq	(%rcx), %rcx
	movq	-784(%rbp), %rdx        ## 8-byte Reload
	movq	%rcx, 56(%rdx)
	movq	%rax, -592(%rbp)
	movq	-592(%rbp), %rax
	movq	%rax, -584(%rbp)
	movq	-584(%rbp), %rax
	movq	%rax, -560(%rbp)
	movq	$0, -568(%rbp)
	movq	-560(%rbp), %rax
	movq	%rax, -552(%rbp)
	movq	-552(%rbp), %rcx
	movq	%rcx, -544(%rbp)
	movq	-544(%rbp), %rcx
	movq	(%rcx), %rcx
	movq	%rcx, -576(%rbp)
	movq	-568(%rbp), %rcx
	movq	%rax, -504(%rbp)
	movq	-504(%rbp), %rsi
	movq	%rsi, -496(%rbp)
	movq	-496(%rbp), %rsi
	movq	%rcx, (%rsi)
	cmpq	$0, -576(%rbp)
	movq	%rax, -840(%rbp)        ## 8-byte Spill
	je	LBB49_12
## BB#7:
	movq	-840(%rbp), %rax        ## 8-byte Reload
	movq	%rax, -488(%rbp)
	movq	-488(%rbp), %rcx
	movq	%rcx, -480(%rbp)
	movq	-480(%rbp), %rcx
	movq	-576(%rbp), %rdx
	movq	%rcx, -512(%rbp)
	movq	%rdx, -520(%rbp)
	movq	-520(%rbp), %rcx
	cmpq	$0, %rcx
	movq	%rcx, -848(%rbp)        ## 8-byte Spill
	je	LBB49_11
## BB#8:
	movq	-848(%rbp), %rax        ## 8-byte Reload
	movq	(%rax), %rcx
	movq	8(%rcx), %rcx
Ltmp500:
	movq	%rax, %rdi
	callq	*%rcx
Ltmp501:
	jmp	LBB49_9
LBB49_9:
	jmp	LBB49_11
LBB49_10:
Ltmp502:
	movl	%edx, %ecx
	movq	%rax, -528(%rbp)
	movl	%ecx, -532(%rbp)
	movq	-528(%rbp), %rdi
	callq	___cxa_call_unexpected
LBB49_11:
	jmp	LBB49_12
LBB49_12:
	movq	-784(%rbp), %rax        ## 8-byte Reload
	movl	24(%rax), %ecx
	andl	$496, %ecx              ## imm = 0x1F0
	movl	%ecx, -852(%rbp)        ## 4-byte Spill
	je	LBB49_22
	jmp	LBB49_33
LBB49_33:
	movl	-852(%rbp), %eax        ## 4-byte Reload
	subl	$16, %eax
	movl	%eax, -856(%rbp)        ## 4-byte Spill
	je	LBB49_23
	jmp	LBB49_34
LBB49_34:
	movl	-852(%rbp), %eax        ## 4-byte Reload
	subl	$32, %eax
	movl	%eax, -860(%rbp)        ## 4-byte Spill
	je	LBB49_24
	jmp	LBB49_35
LBB49_35:
	movl	-852(%rbp), %eax        ## 4-byte Reload
	subl	$64, %eax
	movl	%eax, -864(%rbp)        ## 4-byte Spill
	je	LBB49_24
	jmp	LBB49_36
LBB49_36:
	movl	-852(%rbp), %eax        ## 4-byte Reload
	subl	$128, %eax
	movl	%eax, -868(%rbp)        ## 4-byte Spill
	je	LBB49_25
	jmp	LBB49_37
LBB49_37:
	movl	-852(%rbp), %eax        ## 4-byte Reload
	subl	$256, %eax              ## imm = 0x100
	movl	%eax, -872(%rbp)        ## 4-byte Spill
	je	LBB49_26
	jmp	LBB49_27
LBB49_13:
Ltmp496:
	movl	%edx, %ecx
	movq	%rax, -768(%rbp)
	movl	%ecx, -772(%rbp)
## BB#14:
	leaq	-760(%rbp), %rax
	movq	%rax, -712(%rbp)
	movq	-712(%rbp), %rax
	movq	%rax, -704(%rbp)
	movq	-704(%rbp), %rax
	movq	%rax, -680(%rbp)
	movq	$0, -688(%rbp)
	movq	-680(%rbp), %rax
	movq	%rax, -672(%rbp)
	movq	-672(%rbp), %rcx
	movq	%rcx, -664(%rbp)
	movq	-664(%rbp), %rcx
	movq	(%rcx), %rcx
	movq	%rcx, -696(%rbp)
	movq	-688(%rbp), %rcx
	movq	%rax, -624(%rbp)
	movq	-624(%rbp), %rdx
	movq	%rdx, -616(%rbp)
	movq	-616(%rbp), %rdx
	movq	%rcx, (%rdx)
	cmpq	$0, -696(%rbp)
	movq	%rax, -880(%rbp)        ## 8-byte Spill
	je	LBB49_20
## BB#15:
	movq	-880(%rbp), %rax        ## 8-byte Reload
	movq	%rax, -608(%rbp)
	movq	-608(%rbp), %rcx
	movq	%rcx, -600(%rbp)
	movq	-600(%rbp), %rcx
	movq	-696(%rbp), %rdx
	movq	%rcx, -632(%rbp)
	movq	%rdx, -640(%rbp)
	movq	-640(%rbp), %rcx
	cmpq	$0, %rcx
	movq	%rcx, -888(%rbp)        ## 8-byte Spill
	je	LBB49_19
## BB#16:
	movq	-888(%rbp), %rax        ## 8-byte Reload
	movq	(%rax), %rcx
	movq	8(%rcx), %rcx
Ltmp497:
	movq	%rax, %rdi
	callq	*%rcx
Ltmp498:
	jmp	LBB49_17
LBB49_17:
	jmp	LBB49_19
LBB49_18:
Ltmp499:
	movl	%edx, %ecx
	movq	%rax, -648(%rbp)
	movl	%ecx, -652(%rbp)
	movq	-648(%rbp), %rdi
	callq	___cxa_call_unexpected
LBB49_19:
	jmp	LBB49_20
LBB49_20:
	jmp	LBB49_21
LBB49_21:
	jmp	LBB49_31
LBB49_22:
	movq	-744(%rbp), %rsi
	movq	-752(%rbp), %rdx
	movq	-784(%rbp), %rdi        ## 8-byte Reload
	callq	__ZNSt3__111basic_regexIcNS_12regex_traitsIcEEE16__parse_ecma_expIPKcEET_S7_S7_
	movq	%rax, -744(%rbp)
	jmp	LBB49_30
LBB49_23:
	movq	-744(%rbp), %rsi
	movq	-752(%rbp), %rdx
	movq	-784(%rbp), %rdi        ## 8-byte Reload
	callq	__ZNSt3__111basic_regexIcNS_12regex_traitsIcEEE21__parse_basic_reg_expIPKcEET_S7_S7_
	movq	%rax, -744(%rbp)
	jmp	LBB49_30
LBB49_24:
	movq	-744(%rbp), %rsi
	movq	-752(%rbp), %rdx
	movq	-784(%rbp), %rdi        ## 8-byte Reload
	callq	__ZNSt3__111basic_regexIcNS_12regex_traitsIcEEE24__parse_extended_reg_expIPKcEET_S7_S7_
	movq	%rax, -744(%rbp)
	jmp	LBB49_30
LBB49_25:
	movq	-744(%rbp), %rsi
	movq	-752(%rbp), %rdx
	movq	-784(%rbp), %rdi        ## 8-byte Reload
	callq	__ZNSt3__111basic_regexIcNS_12regex_traitsIcEEE12__parse_grepIPKcEET_S7_S7_
	movq	%rax, -744(%rbp)
	jmp	LBB49_30
LBB49_26:
	movq	-744(%rbp), %rsi
	movq	-752(%rbp), %rdx
	movq	-784(%rbp), %rdi        ## 8-byte Reload
	callq	__ZNSt3__111basic_regexIcNS_12regex_traitsIcEEE13__parse_egrepIPKcEET_S7_S7_
	movq	%rax, -744(%rbp)
	jmp	LBB49_30
LBB49_27:
	movl	$24, %eax
	movl	%eax, %edi
	callq	___cxa_allocate_exception
	movq	%rax, %rdi
Ltmp503:
	movl	$14, %esi
	movq	%rdi, -896(%rbp)        ## 8-byte Spill
	movq	%rax, %rdi
	callq	__ZNSt3__111regex_errorC1ENS_15regex_constants10error_typeE
Ltmp504:
	jmp	LBB49_28
LBB49_28:
	movq	__ZTINSt3__111regex_errorE@GOTPCREL(%rip), %rax
	movq	__ZNSt3__111regex_errorD1Ev@GOTPCREL(%rip), %rcx
	movq	-896(%rbp), %rdi        ## 8-byte Reload
	movq	%rax, %rsi
	movq	%rcx, %rdx
	callq	___cxa_throw
LBB49_29:
Ltmp505:
	movl	%edx, %ecx
	movq	%rax, -720(%rbp)
	movl	%ecx, -724(%rbp)
	movq	-896(%rbp), %rdi        ## 8-byte Reload
	callq	___cxa_free_exception
	movq	-720(%rbp), %rax
	movq	%rax, -904(%rbp)        ## 8-byte Spill
	jmp	LBB49_32
LBB49_30:
	movq	-744(%rbp), %rax
	addq	$912, %rsp              ## imm = 0x390
	popq	%rbp
	retq
LBB49_31:
	movq	-768(%rbp), %rax
	movq	%rax, -904(%rbp)        ## 8-byte Spill
LBB49_32:
	movq	-904(%rbp), %rax        ## 8-byte Reload
	movq	%rax, %rdi
	callq	__Unwind_Resume
Lfunc_end17:
	.cfi_endproc
	.section	__TEXT,__gcc_except_tab
	.align	2
GCC_except_table49:
Lexception17:
	.byte	255                     ## @LPStart Encoding = omit
	.byte	155                     ## @TType Encoding = indirect pcrel sdata4
	.asciz	"\364"                  ## @TType base offset
	.byte	3                       ## Call site Encoding = udata4
	.byte	104                     ## Call site table length
Lset393 = Lfunc_begin17-Lfunc_begin17   ## >> Call Site 1 <<
	.long	Lset393
Lset394 = Ltmp490-Lfunc_begin17         ##   Call between Lfunc_begin17 and Ltmp490
	.long	Lset394
	.long	0                       ##     has no landing pad
	.byte	0                       ##   On action: cleanup
Lset395 = Ltmp490-Lfunc_begin17         ## >> Call Site 2 <<
	.long	Lset395
Lset396 = Ltmp495-Ltmp490               ##   Call between Ltmp490 and Ltmp495
	.long	Lset396
Lset397 = Ltmp496-Lfunc_begin17         ##     jumps to Ltmp496
	.long	Lset397
	.byte	0                       ##   On action: cleanup
Lset398 = Ltmp500-Lfunc_begin17         ## >> Call Site 3 <<
	.long	Lset398
Lset399 = Ltmp501-Ltmp500               ##   Call between Ltmp500 and Ltmp501
	.long	Lset399
Lset400 = Ltmp502-Lfunc_begin17         ##     jumps to Ltmp502
	.long	Lset400
	.byte	1                       ##   On action: 1
Lset401 = Ltmp501-Lfunc_begin17         ## >> Call Site 4 <<
	.long	Lset401
Lset402 = Ltmp497-Ltmp501               ##   Call between Ltmp501 and Ltmp497
	.long	Lset402
	.long	0                       ##     has no landing pad
	.byte	0                       ##   On action: cleanup
Lset403 = Ltmp497-Lfunc_begin17         ## >> Call Site 5 <<
	.long	Lset403
Lset404 = Ltmp498-Ltmp497               ##   Call between Ltmp497 and Ltmp498
	.long	Lset404
Lset405 = Ltmp499-Lfunc_begin17         ##     jumps to Ltmp499
	.long	Lset405
	.byte	5                       ##   On action: 3
Lset406 = Ltmp498-Lfunc_begin17         ## >> Call Site 6 <<
	.long	Lset406
Lset407 = Ltmp503-Ltmp498               ##   Call between Ltmp498 and Ltmp503
	.long	Lset407
	.long	0                       ##     has no landing pad
	.byte	0                       ##   On action: cleanup
Lset408 = Ltmp503-Lfunc_begin17         ## >> Call Site 7 <<
	.long	Lset408
Lset409 = Ltmp504-Ltmp503               ##   Call between Ltmp503 and Ltmp504
	.long	Lset409
Lset410 = Ltmp505-Lfunc_begin17         ##     jumps to Ltmp505
	.long	Lset410
	.byte	0                       ##   On action: cleanup
Lset411 = Ltmp504-Lfunc_begin17         ## >> Call Site 8 <<
	.long	Lset411
Lset412 = Lfunc_end17-Ltmp504           ##   Call between Ltmp504 and Lfunc_end17
	.long	Lset412
	.long	0                       ##     has no landing pad
	.byte	0                       ##   On action: cleanup
	.byte	127                     ## >> Action Record 1 <<
                                        ##   Filter TypeInfo -1
	.byte	0                       ##   No further actions
	.byte	1                       ## >> Action Record 2 <<
                                        ##   Catch TypeInfo 1
	.byte	0                       ##   No further actions
	.byte	127                     ## >> Action Record 3 <<
                                        ##   Filter TypeInfo -1
	.byte	125                     ##   Continue to action 2
                                        ## >> Catch TypeInfos <<
	.long	0                       ## TypeInfo 1
                                        ## >> Filter TypeInfos <<
	.byte	0
	.align	2

	.section	__TEXT,__text,regular,pure_instructions
	.globl	__ZNSt3__112regex_traitsIcED1Ev
	.weak_def_can_be_hidden	__ZNSt3__112regex_traitsIcED1Ev
	.align	4, 0x90
__ZNSt3__112regex_traitsIcED1Ev:        ## @_ZNSt3__112regex_traitsIcED1Ev
	.cfi_startproc
## BB#0:
	pushq	%rbp
Ltmp509:
	.cfi_def_cfa_offset 16
Ltmp510:
	.cfi_offset %rbp, -16
	movq	%rsp, %rbp
Ltmp511:
	.cfi_def_cfa_register %rbp
	subq	$16, %rsp
	movq	%rdi, -8(%rbp)
	movq	-8(%rbp), %rdi
	callq	__ZNSt3__112regex_traitsIcED2Ev
	addq	$16, %rsp
	popq	%rbp
	retq
	.cfi_endproc

	.globl	__ZNSt3__111basic_regexIcNS_12regex_traitsIcEEE16__parse_ecma_expIPKcEET_S7_S7_
	.weak_def_can_be_hidden	__ZNSt3__111basic_regexIcNS_12regex_traitsIcEEE16__parse_ecma_expIPKcEET_S7_S7_
	.align	4, 0x90
__ZNSt3__111basic_regexIcNS_12regex_traitsIcEEE16__parse_ecma_expIPKcEET_S7_S7_: ## @_ZNSt3__111basic_regexIcNS_12regex_traitsIcEEE16__parse_ecma_expIPKcEET_S7_S7_
	.cfi_startproc
## BB#0:
	pushq	%rbp
Ltmp512:
	.cfi_def_cfa_offset 16
Ltmp513:
	.cfi_offset %rbp, -16
	movq	%rsp, %rbp
Ltmp514:
	.cfi_def_cfa_register %rbp
	subq	$80, %rsp
	movq	%rdi, -8(%rbp)
	movq	%rsi, -16(%rbp)
	movq	%rdx, -24(%rbp)
	movq	-8(%rbp), %rdx
	movq	56(%rdx), %rsi
	movq	%rsi, -32(%rbp)
	movq	-16(%rbp), %rsi
	movq	-24(%rbp), %rdi
	movq	%rdi, -56(%rbp)         ## 8-byte Spill
	movq	%rdx, %rdi
	movq	-56(%rbp), %rax         ## 8-byte Reload
	movq	%rdx, -64(%rbp)         ## 8-byte Spill
	movq	%rax, %rdx
	callq	__ZNSt3__111basic_regexIcNS_12regex_traitsIcEEE19__parse_alternativeIPKcEET_S7_S7_
	movq	%rax, -40(%rbp)
	movq	-40(%rbp), %rax
	cmpq	-16(%rbp), %rax
	jne	LBB51_2
## BB#1:
	movq	-64(%rbp), %rdi         ## 8-byte Reload
	callq	__ZNSt3__111basic_regexIcNS_12regex_traitsIcEEE12__push_emptyEv
LBB51_2:
	movq	-40(%rbp), %rax
	movq	%rax, -16(%rbp)
LBB51_3:                                ## =>This Inner Loop Header: Depth=1
	xorl	%eax, %eax
	movb	%al, %cl
	movq	-16(%rbp), %rdx
	cmpq	-24(%rbp), %rdx
	movb	%cl, -65(%rbp)          ## 1-byte Spill
	je	LBB51_5
## BB#4:                                ##   in Loop: Header=BB51_3 Depth=1
	movq	-16(%rbp), %rax
	movsbl	(%rax), %ecx
	cmpl	$124, %ecx
	sete	%dl
	movb	%dl, -65(%rbp)          ## 1-byte Spill
LBB51_5:                                ##   in Loop: Header=BB51_3 Depth=1
	movb	-65(%rbp), %al          ## 1-byte Reload
	testb	$1, %al
	jne	LBB51_6
	jmp	LBB51_9
LBB51_6:                                ##   in Loop: Header=BB51_3 Depth=1
	movq	-64(%rbp), %rax         ## 8-byte Reload
	movq	56(%rax), %rcx
	movq	%rcx, -48(%rbp)
	movq	-16(%rbp), %rcx
	addq	$1, %rcx
	movq	%rcx, -16(%rbp)
	movq	-24(%rbp), %rdx
	movq	%rax, %rdi
	movq	%rcx, %rsi
	callq	__ZNSt3__111basic_regexIcNS_12regex_traitsIcEEE19__parse_alternativeIPKcEET_S7_S7_
	movq	%rax, -40(%rbp)
	movq	-40(%rbp), %rax
	cmpq	-16(%rbp), %rax
	jne	LBB51_8
## BB#7:                                ##   in Loop: Header=BB51_3 Depth=1
	movq	-64(%rbp), %rdi         ## 8-byte Reload
	callq	__ZNSt3__111basic_regexIcNS_12regex_traitsIcEEE12__push_emptyEv
LBB51_8:                                ##   in Loop: Header=BB51_3 Depth=1
	movq	-32(%rbp), %rsi
	movq	-48(%rbp), %rdx
	movq	-64(%rbp), %rdi         ## 8-byte Reload
	callq	__ZNSt3__111basic_regexIcNS_12regex_traitsIcEEE18__push_alternationEPNS_16__owns_one_stateIcEES6_
	movq	-40(%rbp), %rdx
	movq	%rdx, -16(%rbp)
	jmp	LBB51_3
LBB51_9:
	movq	-16(%rbp), %rax
	addq	$80, %rsp
	popq	%rbp
	retq
	.cfi_endproc

	.globl	__ZNSt3__111basic_regexIcNS_12regex_traitsIcEEE21__parse_basic_reg_expIPKcEET_S7_S7_
	.weak_def_can_be_hidden	__ZNSt3__111basic_regexIcNS_12regex_traitsIcEEE21__parse_basic_reg_expIPKcEET_S7_S7_
	.align	4, 0x90
__ZNSt3__111basic_regexIcNS_12regex_traitsIcEEE21__parse_basic_reg_expIPKcEET_S7_S7_: ## @_ZNSt3__111basic_regexIcNS_12regex_traitsIcEEE21__parse_basic_reg_expIPKcEET_S7_S7_
Lfunc_begin18:
	.cfi_startproc
	.cfi_personality 155, ___gxx_personality_v0
	.cfi_lsda 16, Lexception18
## BB#0:
	pushq	%rbp
Ltmp518:
	.cfi_def_cfa_offset 16
Ltmp519:
	.cfi_offset %rbp, -16
	movq	%rsp, %rbp
Ltmp520:
	.cfi_def_cfa_register %rbp
	pushq	%rbx
	subq	$264, %rsp              ## imm = 0x108
Ltmp521:
	.cfi_offset %rbx, -24
	movq	%rdi, -216(%rbp)
	movq	%rsi, -224(%rbp)
	movq	%rdx, -232(%rbp)
	movq	-216(%rbp), %rdx
	movq	-224(%rbp), %rsi
	cmpq	-232(%rbp), %rsi
	movq	%rdx, -248(%rbp)        ## 8-byte Spill
	je	LBB52_15
## BB#1:
	movq	-224(%rbp), %rax
	movsbl	(%rax), %ecx
	cmpl	$94, %ecx
	jne	LBB52_3
## BB#2:
	movl	$16, %eax
	movl	%eax, %edi
	movq	-248(%rbp), %rcx        ## 8-byte Reload
	movq	%rcx, -192(%rbp)
	movq	-192(%rbp), %rdx
	movq	%rdx, -256(%rbp)        ## 8-byte Spill
	callq	__Znwm
	movq	__ZTVNSt3__110__l_anchorIcEE@GOTPCREL(%rip), %rcx
	addq	$16, %rcx
	movq	__ZTVNSt3__116__owns_one_stateIcEE@GOTPCREL(%rip), %rdx
	addq	$16, %rdx
	movq	__ZTVNSt3__115__has_one_stateIcEE@GOTPCREL(%rip), %rdi
	addq	$16, %rdi
	movq	__ZTVNSt3__16__nodeIcEE@GOTPCREL(%rip), %rsi
	addq	$16, %rsi
	movq	-256(%rbp), %r8         ## 8-byte Reload
	movq	56(%r8), %r9
	movq	%r9, -184(%rbp)
	movq	-184(%rbp), %r9
	movq	8(%r9), %r9
	movq	%rax, -152(%rbp)
	movq	%r9, -160(%rbp)
	movq	-152(%rbp), %r9
	movq	-160(%rbp), %r10
	movq	%r9, -136(%rbp)
	movq	%r10, -144(%rbp)
	movq	-136(%rbp), %r9
	movq	%r9, %r10
	movq	-144(%rbp), %r11
	movq	%r10, -120(%rbp)
	movq	%r11, -128(%rbp)
	movq	-120(%rbp), %r10
	movq	%r10, %r11
	movq	-128(%rbp), %rbx
	movq	%r11, -104(%rbp)
	movq	%rbx, -112(%rbp)
	movq	-104(%rbp), %r11
	movq	%r11, %rbx
	movq	%rbx, -96(%rbp)
	movq	-96(%rbp), %rbx
	movq	%rsi, (%rbx)
	movq	%rdi, (%r11)
	movq	-112(%rbp), %rsi
	movq	%rsi, 8(%r11)
	movq	%rdx, (%r10)
	movq	%rcx, (%r9)
	movq	56(%r8), %rcx
	movq	%rcx, -168(%rbp)
	movq	-168(%rbp), %rcx
	movq	%rax, 8(%rcx)
	movq	56(%r8), %rax
	movq	%rax, -176(%rbp)
	movq	-176(%rbp), %rax
	movq	8(%rax), %rax
	movq	%rax, 56(%r8)
	movq	-224(%rbp), %rax
	addq	$1, %rax
	movq	%rax, -224(%rbp)
LBB52_3:
	movq	-224(%rbp), %rax
	cmpq	-232(%rbp), %rax
	je	LBB52_10
## BB#4:
	movq	-224(%rbp), %rsi
	movq	-232(%rbp), %rdx
	movq	-248(%rbp), %rdi        ## 8-byte Reload
	callq	__ZNSt3__111basic_regexIcNS_12regex_traitsIcEEE21__parse_RE_expressionIPKcEET_S7_S7_
	movq	%rax, -224(%rbp)
	movq	-224(%rbp), %rax
	cmpq	-232(%rbp), %rax
	je	LBB52_9
## BB#5:
	leaq	-72(%rbp), %rax
	movq	-224(%rbp), %rcx
	movq	%rcx, -72(%rbp)
	movq	$1, -80(%rbp)
	movq	$0, -88(%rbp)
	movq	-80(%rbp), %rcx
	movq	%rax, -48(%rbp)
	movq	%rcx, -56(%rbp)
	movq	-48(%rbp), %rax
	movq	-56(%rbp), %rcx
	movq	%rax, -32(%rbp)
	movq	%rcx, -40(%rbp)
	movq	-40(%rbp), %rax
	movq	-32(%rbp), %rcx
	addq	(%rcx), %rax
	movq	%rax, (%rcx)
	movq	-72(%rbp), %rax
	movq	%rax, -240(%rbp)
	movq	-240(%rbp), %rax
	cmpq	-232(%rbp), %rax
	jne	LBB52_8
## BB#6:
	movq	-224(%rbp), %rax
	movsbl	(%rax), %ecx
	cmpl	$36, %ecx
	jne	LBB52_8
## BB#7:
	movq	-248(%rbp), %rdi        ## 8-byte Reload
	callq	__ZNSt3__111basic_regexIcNS_12regex_traitsIcEEE15__push_r_anchorEv
	movq	-224(%rbp), %rdi
	addq	$1, %rdi
	movq	%rdi, -224(%rbp)
LBB52_8:
	jmp	LBB52_9
LBB52_9:
	jmp	LBB52_10
LBB52_10:
	movq	-224(%rbp), %rax
	cmpq	-232(%rbp), %rax
	je	LBB52_14
## BB#11:
	movl	$24, %eax
	movl	%eax, %edi
	callq	___cxa_allocate_exception
	movq	%rax, %rdi
Ltmp515:
	movl	$15, %esi
	movq	%rdi, -264(%rbp)        ## 8-byte Spill
	movq	%rax, %rdi
	callq	__ZNSt3__111regex_errorC1ENS_15regex_constants10error_typeE
Ltmp516:
	jmp	LBB52_12
LBB52_12:
	movq	__ZTINSt3__111regex_errorE@GOTPCREL(%rip), %rax
	movq	__ZNSt3__111regex_errorD1Ev@GOTPCREL(%rip), %rcx
	movq	-264(%rbp), %rdi        ## 8-byte Reload
	movq	%rax, %rsi
	movq	%rcx, %rdx
	callq	___cxa_throw
LBB52_13:
Ltmp517:
	movl	%edx, %ecx
	movq	%rax, -16(%rbp)
	movl	%ecx, -20(%rbp)
	movq	-264(%rbp), %rdi        ## 8-byte Reload
	callq	___cxa_free_exception
	movq	-16(%rbp), %rdi
	callq	__Unwind_Resume
LBB52_14:
	jmp	LBB52_15
LBB52_15:
	movq	-224(%rbp), %rax
	addq	$264, %rsp              ## imm = 0x108
	popq	%rbx
	popq	%rbp
	retq
Lfunc_end18:
	.cfi_endproc
	.section	__TEXT,__gcc_except_tab
	.align	2
GCC_except_table52:
Lexception18:
	.byte	255                     ## @LPStart Encoding = omit
	.byte	155                     ## @TType Encoding = indirect pcrel sdata4
	.byte	41                      ## @TType base offset
	.byte	3                       ## Call site Encoding = udata4
	.byte	39                      ## Call site table length
Lset413 = Lfunc_begin18-Lfunc_begin18   ## >> Call Site 1 <<
	.long	Lset413
Lset414 = Ltmp515-Lfunc_begin18         ##   Call between Lfunc_begin18 and Ltmp515
	.long	Lset414
	.long	0                       ##     has no landing pad
	.byte	0                       ##   On action: cleanup
Lset415 = Ltmp515-Lfunc_begin18         ## >> Call Site 2 <<
	.long	Lset415
Lset416 = Ltmp516-Ltmp515               ##   Call between Ltmp515 and Ltmp516
	.long	Lset416
Lset417 = Ltmp517-Lfunc_begin18         ##     jumps to Ltmp517
	.long	Lset417
	.byte	0                       ##   On action: cleanup
Lset418 = Ltmp516-Lfunc_begin18         ## >> Call Site 3 <<
	.long	Lset418
Lset419 = Lfunc_end18-Ltmp516           ##   Call between Ltmp516 and Lfunc_end18
	.long	Lset419
	.long	0                       ##     has no landing pad
	.byte	0                       ##   On action: cleanup
	.align	2

	.section	__TEXT,__text,regular,pure_instructions
	.globl	__ZNSt3__111basic_regexIcNS_12regex_traitsIcEEE24__parse_extended_reg_expIPKcEET_S7_S7_
	.weak_def_can_be_hidden	__ZNSt3__111basic_regexIcNS_12regex_traitsIcEEE24__parse_extended_reg_expIPKcEET_S7_S7_
	.align	4, 0x90
__ZNSt3__111basic_regexIcNS_12regex_traitsIcEEE24__parse_extended_reg_expIPKcEET_S7_S7_: ## @_ZNSt3__111basic_regexIcNS_12regex_traitsIcEEE24__parse_extended_reg_expIPKcEET_S7_S7_
Lfunc_begin19:
	.cfi_startproc
	.cfi_personality 155, ___gxx_personality_v0
	.cfi_lsda 16, Lexception19
## BB#0:
	pushq	%rbp
Ltmp528:
	.cfi_def_cfa_offset 16
Ltmp529:
	.cfi_offset %rbp, -16
	movq	%rsp, %rbp
Ltmp530:
	.cfi_def_cfa_register %rbp
	subq	$128, %rsp
	movq	%rdi, -40(%rbp)
	movq	%rsi, -48(%rbp)
	movq	%rdx, -56(%rbp)
	movq	-40(%rbp), %rdx
	movq	56(%rdx), %rsi
	movq	%rsi, -64(%rbp)
	movq	-48(%rbp), %rsi
	movq	-56(%rbp), %rdi
	movq	%rdi, -88(%rbp)         ## 8-byte Spill
	movq	%rdx, %rdi
	movq	-88(%rbp), %rax         ## 8-byte Reload
	movq	%rdx, -96(%rbp)         ## 8-byte Spill
	movq	%rax, %rdx
	callq	__ZNSt3__111basic_regexIcNS_12regex_traitsIcEEE18__parse_ERE_branchIPKcEET_S7_S7_
	movq	%rax, -72(%rbp)
	movq	-72(%rbp), %rax
	cmpq	-48(%rbp), %rax
	jne	LBB53_4
## BB#1:
	movl	$24, %eax
	movl	%eax, %edi
	callq	___cxa_allocate_exception
	movq	%rax, %rdi
Ltmp525:
	movl	$15, %esi
	movq	%rdi, -104(%rbp)        ## 8-byte Spill
	movq	%rax, %rdi
	callq	__ZNSt3__111regex_errorC1ENS_15regex_constants10error_typeE
Ltmp526:
	jmp	LBB53_2
LBB53_2:
	movq	__ZTINSt3__111regex_errorE@GOTPCREL(%rip), %rax
	movq	__ZNSt3__111regex_errorD1Ev@GOTPCREL(%rip), %rcx
	movq	-104(%rbp), %rdi        ## 8-byte Reload
	movq	%rax, %rsi
	movq	%rcx, %rdx
	callq	___cxa_throw
LBB53_3:
Ltmp527:
	movl	%edx, %ecx
	movq	%rax, -8(%rbp)
	movl	%ecx, -12(%rbp)
	movq	-104(%rbp), %rdi        ## 8-byte Reload
	callq	___cxa_free_exception
	movq	-8(%rbp), %rax
	movq	%rax, -112(%rbp)        ## 8-byte Spill
	jmp	LBB53_14
LBB53_4:
	movq	-72(%rbp), %rax
	movq	%rax, -48(%rbp)
LBB53_5:                                ## =>This Inner Loop Header: Depth=1
	xorl	%eax, %eax
	movb	%al, %cl
	movq	-48(%rbp), %rdx
	cmpq	-56(%rbp), %rdx
	movb	%cl, -113(%rbp)         ## 1-byte Spill
	je	LBB53_7
## BB#6:                                ##   in Loop: Header=BB53_5 Depth=1
	movq	-48(%rbp), %rax
	movsbl	(%rax), %ecx
	cmpl	$124, %ecx
	sete	%dl
	movb	%dl, -113(%rbp)         ## 1-byte Spill
LBB53_7:                                ##   in Loop: Header=BB53_5 Depth=1
	movb	-113(%rbp), %al         ## 1-byte Reload
	testb	$1, %al
	jne	LBB53_8
	jmp	LBB53_13
LBB53_8:                                ##   in Loop: Header=BB53_5 Depth=1
	movq	-96(%rbp), %rax         ## 8-byte Reload
	movq	56(%rax), %rcx
	movq	%rcx, -80(%rbp)
	movq	-48(%rbp), %rcx
	addq	$1, %rcx
	movq	%rcx, -48(%rbp)
	movq	-56(%rbp), %rdx
	movq	%rax, %rdi
	movq	%rcx, %rsi
	callq	__ZNSt3__111basic_regexIcNS_12regex_traitsIcEEE18__parse_ERE_branchIPKcEET_S7_S7_
	movq	%rax, -72(%rbp)
	movq	-72(%rbp), %rax
	cmpq	-48(%rbp), %rax
	jne	LBB53_12
## BB#9:
	movl	$24, %eax
	movl	%eax, %edi
	callq	___cxa_allocate_exception
	movq	%rax, %rdi
Ltmp522:
	movl	$15, %esi
	movq	%rdi, -128(%rbp)        ## 8-byte Spill
	movq	%rax, %rdi
	callq	__ZNSt3__111regex_errorC1ENS_15regex_constants10error_typeE
Ltmp523:
	jmp	LBB53_10
LBB53_10:
	movq	__ZTINSt3__111regex_errorE@GOTPCREL(%rip), %rax
	movq	__ZNSt3__111regex_errorD1Ev@GOTPCREL(%rip), %rcx
	movq	-128(%rbp), %rdi        ## 8-byte Reload
	movq	%rax, %rsi
	movq	%rcx, %rdx
	callq	___cxa_throw
LBB53_11:
Ltmp524:
	movl	%edx, %ecx
	movq	%rax, -24(%rbp)
	movl	%ecx, -28(%rbp)
	movq	-128(%rbp), %rdi        ## 8-byte Reload
	callq	___cxa_free_exception
	movq	-24(%rbp), %rax
	movq	%rax, -112(%rbp)        ## 8-byte Spill
	jmp	LBB53_14
LBB53_12:                               ##   in Loop: Header=BB53_5 Depth=1
	movq	-64(%rbp), %rsi
	movq	-80(%rbp), %rdx
	movq	-96(%rbp), %rdi         ## 8-byte Reload
	callq	__ZNSt3__111basic_regexIcNS_12regex_traitsIcEEE18__push_alternationEPNS_16__owns_one_stateIcEES6_
	movq	-72(%rbp), %rdx
	movq	%rdx, -48(%rbp)
	jmp	LBB53_5
LBB53_13:
	movq	-48(%rbp), %rax
	addq	$128, %rsp
	popq	%rbp
	retq
LBB53_14:
	movq	-112(%rbp), %rax        ## 8-byte Reload
	movq	%rax, %rdi
	callq	__Unwind_Resume
Lfunc_end19:
	.cfi_endproc
	.section	__TEXT,__gcc_except_tab
	.align	2
GCC_except_table53:
Lexception19:
	.byte	255                     ## @LPStart Encoding = omit
	.byte	155                     ## @TType Encoding = indirect pcrel sdata4
	.asciz	"\303\200"              ## @TType base offset
	.byte	3                       ## Call site Encoding = udata4
	.byte	65                      ## Call site table length
Lset420 = Lfunc_begin19-Lfunc_begin19   ## >> Call Site 1 <<
	.long	Lset420
Lset421 = Ltmp525-Lfunc_begin19         ##   Call between Lfunc_begin19 and Ltmp525
	.long	Lset421
	.long	0                       ##     has no landing pad
	.byte	0                       ##   On action: cleanup
Lset422 = Ltmp525-Lfunc_begin19         ## >> Call Site 2 <<
	.long	Lset422
Lset423 = Ltmp526-Ltmp525               ##   Call between Ltmp525 and Ltmp526
	.long	Lset423
Lset424 = Ltmp527-Lfunc_begin19         ##     jumps to Ltmp527
	.long	Lset424
	.byte	0                       ##   On action: cleanup
Lset425 = Ltmp526-Lfunc_begin19         ## >> Call Site 3 <<
	.long	Lset425
Lset426 = Ltmp522-Ltmp526               ##   Call between Ltmp526 and Ltmp522
	.long	Lset426
	.long	0                       ##     has no landing pad
	.byte	0                       ##   On action: cleanup
Lset427 = Ltmp522-Lfunc_begin19         ## >> Call Site 4 <<
	.long	Lset427
Lset428 = Ltmp523-Ltmp522               ##   Call between Ltmp522 and Ltmp523
	.long	Lset428
Lset429 = Ltmp524-Lfunc_begin19         ##     jumps to Ltmp524
	.long	Lset429
	.byte	0                       ##   On action: cleanup
Lset430 = Ltmp523-Lfunc_begin19         ## >> Call Site 5 <<
	.long	Lset430
Lset431 = Lfunc_end19-Ltmp523           ##   Call between Ltmp523 and Lfunc_end19
	.long	Lset431
	.long	0                       ##     has no landing pad
	.byte	0                       ##   On action: cleanup
	.align	2

	.section	__TEXT,__text,regular,pure_instructions
	.globl	__ZNSt3__111basic_regexIcNS_12regex_traitsIcEEE12__parse_grepIPKcEET_S7_S7_
	.weak_def_can_be_hidden	__ZNSt3__111basic_regexIcNS_12regex_traitsIcEEE12__parse_grepIPKcEET_S7_S7_
	.align	4, 0x90
__ZNSt3__111basic_regexIcNS_12regex_traitsIcEEE12__parse_grepIPKcEET_S7_S7_: ## @_ZNSt3__111basic_regexIcNS_12regex_traitsIcEEE12__parse_grepIPKcEET_S7_S7_
	.cfi_startproc
## BB#0:
	pushq	%rbp
Ltmp531:
	.cfi_def_cfa_offset 16
Ltmp532:
	.cfi_offset %rbp, -16
	movq	%rsp, %rbp
Ltmp533:
	.cfi_def_cfa_register %rbp
	subq	$128, %rsp
	leaq	-89(%rbp), %rax
	movq	%rdi, -56(%rbp)
	movq	%rsi, -64(%rbp)
	movq	%rdx, -72(%rbp)
	movq	-56(%rbp), %rdx
	movq	56(%rdx), %rsi
	movq	%rsi, -80(%rbp)
	movq	-64(%rbp), %rsi
	movq	-72(%rbp), %rdi
	movb	$10, -89(%rbp)
	movq	%rsi, -32(%rbp)
	movq	%rdi, -40(%rbp)
	movq	%rax, -48(%rbp)
	movq	%rdx, -112(%rbp)        ## 8-byte Spill
LBB54_1:                                ## =>This Inner Loop Header: Depth=1
	movq	-32(%rbp), %rax
	cmpq	-40(%rbp), %rax
	je	LBB54_5
## BB#2:                                ##   in Loop: Header=BB54_1 Depth=1
	movq	-32(%rbp), %rax
	movsbl	(%rax), %ecx
	movq	-48(%rbp), %rax
	movsbl	(%rax), %edx
	cmpl	%edx, %ecx
	jne	LBB54_4
## BB#3:
	jmp	LBB54_5
LBB54_4:                                ##   in Loop: Header=BB54_1 Depth=1
	movq	-32(%rbp), %rax
	addq	$1, %rax
	movq	%rax, -32(%rbp)
	jmp	LBB54_1
LBB54_5:
	movq	-32(%rbp), %rax
	movq	%rax, -88(%rbp)
	movq	-88(%rbp), %rax
	cmpq	-64(%rbp), %rax
	je	LBB54_7
## BB#6:
	movq	-64(%rbp), %rsi
	movq	-88(%rbp), %rdx
	movq	-112(%rbp), %rdi        ## 8-byte Reload
	callq	__ZNSt3__111basic_regexIcNS_12regex_traitsIcEEE21__parse_basic_reg_expIPKcEET_S7_S7_
	movq	%rax, -120(%rbp)        ## 8-byte Spill
	jmp	LBB54_8
LBB54_7:
	movq	-112(%rbp), %rdi        ## 8-byte Reload
	callq	__ZNSt3__111basic_regexIcNS_12regex_traitsIcEEE12__push_emptyEv
LBB54_8:
	movq	-88(%rbp), %rax
	movq	%rax, -64(%rbp)
	movq	-64(%rbp), %rax
	cmpq	-72(%rbp), %rax
	je	LBB54_10
## BB#9:
	movq	-64(%rbp), %rax
	addq	$1, %rax
	movq	%rax, -64(%rbp)
LBB54_10:
	jmp	LBB54_11
LBB54_11:                               ## =>This Loop Header: Depth=1
                                        ##     Child Loop BB54_13 Depth 2
	movq	-64(%rbp), %rax
	cmpq	-72(%rbp), %rax
	je	LBB54_23
## BB#12:                               ##   in Loop: Header=BB54_11 Depth=1
	leaq	-90(%rbp), %rax
	movq	-64(%rbp), %rcx
	movq	-72(%rbp), %rdx
	movb	$10, -90(%rbp)
	movq	%rcx, -8(%rbp)
	movq	%rdx, -16(%rbp)
	movq	%rax, -24(%rbp)
LBB54_13:                               ##   Parent Loop BB54_11 Depth=1
                                        ## =>  This Inner Loop Header: Depth=2
	movq	-8(%rbp), %rax
	cmpq	-16(%rbp), %rax
	je	LBB54_17
## BB#14:                               ##   in Loop: Header=BB54_13 Depth=2
	movq	-8(%rbp), %rax
	movsbl	(%rax), %ecx
	movq	-24(%rbp), %rax
	movsbl	(%rax), %edx
	cmpl	%edx, %ecx
	jne	LBB54_16
## BB#15:                               ##   in Loop: Header=BB54_11 Depth=1
	jmp	LBB54_17
LBB54_16:                               ##   in Loop: Header=BB54_13 Depth=2
	movq	-8(%rbp), %rax
	addq	$1, %rax
	movq	%rax, -8(%rbp)
	jmp	LBB54_13
LBB54_17:                               ##   in Loop: Header=BB54_11 Depth=1
	movq	-8(%rbp), %rax
	movq	%rax, -88(%rbp)
	movq	-112(%rbp), %rax        ## 8-byte Reload
	movq	56(%rax), %rcx
	movq	%rcx, -104(%rbp)
	movq	-88(%rbp), %rcx
	cmpq	-64(%rbp), %rcx
	je	LBB54_19
## BB#18:                               ##   in Loop: Header=BB54_11 Depth=1
	movq	-64(%rbp), %rsi
	movq	-88(%rbp), %rdx
	movq	-112(%rbp), %rdi        ## 8-byte Reload
	callq	__ZNSt3__111basic_regexIcNS_12regex_traitsIcEEE21__parse_basic_reg_expIPKcEET_S7_S7_
	movq	%rax, -128(%rbp)        ## 8-byte Spill
	jmp	LBB54_20
LBB54_19:                               ##   in Loop: Header=BB54_11 Depth=1
	movq	-112(%rbp), %rdi        ## 8-byte Reload
	callq	__ZNSt3__111basic_regexIcNS_12regex_traitsIcEEE12__push_emptyEv
LBB54_20:                               ##   in Loop: Header=BB54_11 Depth=1
	movq	-80(%rbp), %rsi
	movq	-104(%rbp), %rdx
	movq	-112(%rbp), %rdi        ## 8-byte Reload
	callq	__ZNSt3__111basic_regexIcNS_12regex_traitsIcEEE18__push_alternationEPNS_16__owns_one_stateIcEES6_
	movq	-88(%rbp), %rdx
	movq	%rdx, -64(%rbp)
	movq	-64(%rbp), %rdx
	cmpq	-72(%rbp), %rdx
	je	LBB54_22
## BB#21:                               ##   in Loop: Header=BB54_11 Depth=1
	movq	-64(%rbp), %rax
	addq	$1, %rax
	movq	%rax, -64(%rbp)
LBB54_22:                               ##   in Loop: Header=BB54_11 Depth=1
	jmp	LBB54_11
LBB54_23:
	movq	-64(%rbp), %rax
	addq	$128, %rsp
	popq	%rbp
	retq
	.cfi_endproc

	.globl	__ZNSt3__111basic_regexIcNS_12regex_traitsIcEEE13__parse_egrepIPKcEET_S7_S7_
	.weak_def_can_be_hidden	__ZNSt3__111basic_regexIcNS_12regex_traitsIcEEE13__parse_egrepIPKcEET_S7_S7_
	.align	4, 0x90
__ZNSt3__111basic_regexIcNS_12regex_traitsIcEEE13__parse_egrepIPKcEET_S7_S7_: ## @_ZNSt3__111basic_regexIcNS_12regex_traitsIcEEE13__parse_egrepIPKcEET_S7_S7_
	.cfi_startproc
## BB#0:
	pushq	%rbp
Ltmp534:
	.cfi_def_cfa_offset 16
Ltmp535:
	.cfi_offset %rbp, -16
	movq	%rsp, %rbp
Ltmp536:
	.cfi_def_cfa_register %rbp
	subq	$128, %rsp
	leaq	-89(%rbp), %rax
	movq	%rdi, -56(%rbp)
	movq	%rsi, -64(%rbp)
	movq	%rdx, -72(%rbp)
	movq	-56(%rbp), %rdx
	movq	56(%rdx), %rsi
	movq	%rsi, -80(%rbp)
	movq	-64(%rbp), %rsi
	movq	-72(%rbp), %rdi
	movb	$10, -89(%rbp)
	movq	%rsi, -32(%rbp)
	movq	%rdi, -40(%rbp)
	movq	%rax, -48(%rbp)
	movq	%rdx, -112(%rbp)        ## 8-byte Spill
LBB55_1:                                ## =>This Inner Loop Header: Depth=1
	movq	-32(%rbp), %rax
	cmpq	-40(%rbp), %rax
	je	LBB55_5
## BB#2:                                ##   in Loop: Header=BB55_1 Depth=1
	movq	-32(%rbp), %rax
	movsbl	(%rax), %ecx
	movq	-48(%rbp), %rax
	movsbl	(%rax), %edx
	cmpl	%edx, %ecx
	jne	LBB55_4
## BB#3:
	jmp	LBB55_5
LBB55_4:                                ##   in Loop: Header=BB55_1 Depth=1
	movq	-32(%rbp), %rax
	addq	$1, %rax
	movq	%rax, -32(%rbp)
	jmp	LBB55_1
LBB55_5:
	movq	-32(%rbp), %rax
	movq	%rax, -88(%rbp)
	movq	-88(%rbp), %rax
	cmpq	-64(%rbp), %rax
	je	LBB55_7
## BB#6:
	movq	-64(%rbp), %rsi
	movq	-88(%rbp), %rdx
	movq	-112(%rbp), %rdi        ## 8-byte Reload
	callq	__ZNSt3__111basic_regexIcNS_12regex_traitsIcEEE24__parse_extended_reg_expIPKcEET_S7_S7_
	movq	%rax, -120(%rbp)        ## 8-byte Spill
	jmp	LBB55_8
LBB55_7:
	movq	-112(%rbp), %rdi        ## 8-byte Reload
	callq	__ZNSt3__111basic_regexIcNS_12regex_traitsIcEEE12__push_emptyEv
LBB55_8:
	movq	-88(%rbp), %rax
	movq	%rax, -64(%rbp)
	movq	-64(%rbp), %rax
	cmpq	-72(%rbp), %rax
	je	LBB55_10
## BB#9:
	movq	-64(%rbp), %rax
	addq	$1, %rax
	movq	%rax, -64(%rbp)
LBB55_10:
	jmp	LBB55_11
LBB55_11:                               ## =>This Loop Header: Depth=1
                                        ##     Child Loop BB55_13 Depth 2
	movq	-64(%rbp), %rax
	cmpq	-72(%rbp), %rax
	je	LBB55_23
## BB#12:                               ##   in Loop: Header=BB55_11 Depth=1
	leaq	-90(%rbp), %rax
	movq	-64(%rbp), %rcx
	movq	-72(%rbp), %rdx
	movb	$10, -90(%rbp)
	movq	%rcx, -8(%rbp)
	movq	%rdx, -16(%rbp)
	movq	%rax, -24(%rbp)
LBB55_13:                               ##   Parent Loop BB55_11 Depth=1
                                        ## =>  This Inner Loop Header: Depth=2
	movq	-8(%rbp), %rax
	cmpq	-16(%rbp), %rax
	je	LBB55_17
## BB#14:                               ##   in Loop: Header=BB55_13 Depth=2
	movq	-8(%rbp), %rax
	movsbl	(%rax), %ecx
	movq	-24(%rbp), %rax
	movsbl	(%rax), %edx
	cmpl	%edx, %ecx
	jne	LBB55_16
## BB#15:                               ##   in Loop: Header=BB55_11 Depth=1
	jmp	LBB55_17
LBB55_16:                               ##   in Loop: Header=BB55_13 Depth=2
	movq	-8(%rbp), %rax
	addq	$1, %rax
	movq	%rax, -8(%rbp)
	jmp	LBB55_13
LBB55_17:                               ##   in Loop: Header=BB55_11 Depth=1
	movq	-8(%rbp), %rax
	movq	%rax, -88(%rbp)
	movq	-112(%rbp), %rax        ## 8-byte Reload
	movq	56(%rax), %rcx
	movq	%rcx, -104(%rbp)
	movq	-88(%rbp), %rcx
	cmpq	-64(%rbp), %rcx
	je	LBB55_19
## BB#18:                               ##   in Loop: Header=BB55_11 Depth=1
	movq	-64(%rbp), %rsi
	movq	-88(%rbp), %rdx
	movq	-112(%rbp), %rdi        ## 8-byte Reload
	callq	__ZNSt3__111basic_regexIcNS_12regex_traitsIcEEE24__parse_extended_reg_expIPKcEET_S7_S7_
	movq	%rax, -128(%rbp)        ## 8-byte Spill
	jmp	LBB55_20
LBB55_19:                               ##   in Loop: Header=BB55_11 Depth=1
	movq	-112(%rbp), %rdi        ## 8-byte Reload
	callq	__ZNSt3__111basic_regexIcNS_12regex_traitsIcEEE12__push_emptyEv
LBB55_20:                               ##   in Loop: Header=BB55_11 Depth=1
	movq	-80(%rbp), %rsi
	movq	-104(%rbp), %rdx
	movq	-112(%rbp), %rdi        ## 8-byte Reload
	callq	__ZNSt3__111basic_regexIcNS_12regex_traitsIcEEE18__push_alternationEPNS_16__owns_one_stateIcEES6_
	movq	-88(%rbp), %rdx
	movq	%rdx, -64(%rbp)
	movq	-64(%rbp), %rdx
	cmpq	-72(%rbp), %rdx
	je	LBB55_22
## BB#21:                               ##   in Loop: Header=BB55_11 Depth=1
	movq	-64(%rbp), %rax
	addq	$1, %rax
	movq	%rax, -64(%rbp)
LBB55_22:                               ##   in Loop: Header=BB55_11 Depth=1
	jmp	LBB55_11
LBB55_23:
	movq	-64(%rbp), %rax
	addq	$128, %rsp
	popq	%rbp
	retq
	.cfi_endproc

	.globl	__ZNSt3__111__end_stateIcED1Ev
	.weak_def_can_be_hidden	__ZNSt3__111__end_stateIcED1Ev
	.align	4, 0x90
__ZNSt3__111__end_stateIcED1Ev:         ## @_ZNSt3__111__end_stateIcED1Ev
	.cfi_startproc
## BB#0:
	pushq	%rbp
Ltmp537:
	.cfi_def_cfa_offset 16
Ltmp538:
	.cfi_offset %rbp, -16
	movq	%rsp, %rbp
Ltmp539:
	.cfi_def_cfa_register %rbp
	subq	$16, %rsp
	movq	%rdi, -8(%rbp)
	movq	-8(%rbp), %rdi
	callq	__ZNSt3__111__end_stateIcED2Ev
	addq	$16, %rsp
	popq	%rbp
	retq
	.cfi_endproc

	.globl	__ZNSt3__111__end_stateIcED0Ev
	.weak_def_can_be_hidden	__ZNSt3__111__end_stateIcED0Ev
	.align	4, 0x90
__ZNSt3__111__end_stateIcED0Ev:         ## @_ZNSt3__111__end_stateIcED0Ev
Lfunc_begin20:
	.cfi_startproc
	.cfi_personality 155, ___gxx_personality_v0
	.cfi_lsda 16, Lexception20
## BB#0:
	pushq	%rbp
Ltmp543:
	.cfi_def_cfa_offset 16
Ltmp544:
	.cfi_offset %rbp, -16
	movq	%rsp, %rbp
Ltmp545:
	.cfi_def_cfa_register %rbp
	subq	$32, %rsp
	movq	%rdi, -8(%rbp)
	movq	%rdi, %rax
Ltmp540:
	movq	%rax, -32(%rbp)         ## 8-byte Spill
	callq	__ZNSt3__111__end_stateIcED1Ev
Ltmp541:
	jmp	LBB57_1
LBB57_1:
	movq	-32(%rbp), %rax         ## 8-byte Reload
	movq	%rax, %rdi
	callq	__ZdlPv
	addq	$32, %rsp
	popq	%rbp
	retq
LBB57_2:
Ltmp542:
	movl	%edx, %ecx
	movq	%rax, -16(%rbp)
	movl	%ecx, -20(%rbp)
	movq	-32(%rbp), %rax         ## 8-byte Reload
	movq	%rax, %rdi
	callq	__ZdlPv
## BB#3:
	movq	-16(%rbp), %rdi
	callq	__Unwind_Resume
Lfunc_end20:
	.cfi_endproc
	.section	__TEXT,__gcc_except_tab
	.align	2
GCC_except_table57:
Lexception20:
	.byte	255                     ## @LPStart Encoding = omit
	.byte	155                     ## @TType Encoding = indirect pcrel sdata4
	.asciz	"\234"                  ## @TType base offset
	.byte	3                       ## Call site Encoding = udata4
	.byte	26                      ## Call site table length
Lset432 = Ltmp540-Lfunc_begin20         ## >> Call Site 1 <<
	.long	Lset432
Lset433 = Ltmp541-Ltmp540               ##   Call between Ltmp540 and Ltmp541
	.long	Lset433
Lset434 = Ltmp542-Lfunc_begin20         ##     jumps to Ltmp542
	.long	Lset434
	.byte	0                       ##   On action: cleanup
Lset435 = Ltmp541-Lfunc_begin20         ## >> Call Site 2 <<
	.long	Lset435
Lset436 = Lfunc_end20-Ltmp541           ##   Call between Ltmp541 and Lfunc_end20
	.long	Lset436
	.long	0                       ##     has no landing pad
	.byte	0                       ##   On action: cleanup
	.align	2

	.section	__TEXT,__text,regular,pure_instructions
	.globl	__ZNKSt3__111__end_stateIcE6__execERNS_7__stateIcEE
	.weak_def_can_be_hidden	__ZNKSt3__111__end_stateIcE6__execERNS_7__stateIcEE
	.align	4, 0x90
__ZNKSt3__111__end_stateIcE6__execERNS_7__stateIcEE: ## @_ZNKSt3__111__end_stateIcE6__execERNS_7__stateIcEE
	.cfi_startproc
## BB#0:
	pushq	%rbp
Ltmp546:
	.cfi_def_cfa_offset 16
Ltmp547:
	.cfi_offset %rbp, -16
	movq	%rsp, %rbp
Ltmp548:
	.cfi_def_cfa_register %rbp
	movq	%rdi, -8(%rbp)
	movq	%rsi, -16(%rbp)
	movq	-16(%rbp), %rsi
	movl	$-1000, (%rsi)          ## imm = 0xFFFFFFFFFFFFFC18
	popq	%rbp
	retq
	.cfi_endproc

	.private_extern	__ZNKSt3__16__nodeIcE12__exec_splitEbRNS_7__stateIcEE
	.globl	__ZNKSt3__16__nodeIcE12__exec_splitEbRNS_7__stateIcEE
	.weak_def_can_be_hidden	__ZNKSt3__16__nodeIcE12__exec_splitEbRNS_7__stateIcEE
	.align	4, 0x90
__ZNKSt3__16__nodeIcE12__exec_splitEbRNS_7__stateIcEE: ## @_ZNKSt3__16__nodeIcE12__exec_splitEbRNS_7__stateIcEE
	.cfi_startproc
## BB#0:
	pushq	%rbp
Ltmp549:
	.cfi_def_cfa_offset 16
Ltmp550:
	.cfi_offset %rbp, -16
	movq	%rsp, %rbp
Ltmp551:
	.cfi_def_cfa_register %rbp
	movb	%sil, %al
	movq	%rdi, -8(%rbp)
	andb	$1, %al
	movb	%al, -9(%rbp)
	movq	%rdx, -24(%rbp)
	popq	%rbp
	retq
	.cfi_endproc

	.private_extern	__ZNSt3__16__nodeIcED1Ev
	.globl	__ZNSt3__16__nodeIcED1Ev
	.weak_def_can_be_hidden	__ZNSt3__16__nodeIcED1Ev
	.align	4, 0x90
__ZNSt3__16__nodeIcED1Ev:               ## @_ZNSt3__16__nodeIcED1Ev
	.cfi_startproc
## BB#0:
	pushq	%rbp
Ltmp552:
	.cfi_def_cfa_offset 16
Ltmp553:
	.cfi_offset %rbp, -16
	movq	%rsp, %rbp
Ltmp554:
	.cfi_def_cfa_register %rbp
	movq	%rdi, -16(%rbp)
	movq	-16(%rbp), %rdi
	movq	%rdi, -8(%rbp)
	popq	%rbp
	retq
	.cfi_endproc

	.private_extern	__ZNSt3__16__nodeIcED0Ev
	.globl	__ZNSt3__16__nodeIcED0Ev
	.weak_def_can_be_hidden	__ZNSt3__16__nodeIcED0Ev
	.align	4, 0x90
__ZNSt3__16__nodeIcED0Ev:               ## @_ZNSt3__16__nodeIcED0Ev
	.cfi_startproc
## BB#0:
	pushq	%rbp
Ltmp555:
	.cfi_def_cfa_offset 16
Ltmp556:
	.cfi_offset %rbp, -16
	movq	%rsp, %rbp
Ltmp557:
	.cfi_def_cfa_register %rbp
	subq	$48, %rsp
	movq	%rdi, -24(%rbp)
	movq	-24(%rbp), %rdi
	movq	%rdi, -16(%rbp)
	movq	-16(%rbp), %rax
	movq	%rax, -8(%rbp)
	movq	%rdi, -48(%rbp)         ## 8-byte Spill
## BB#1:
	movq	-48(%rbp), %rax         ## 8-byte Reload
	movq	%rax, %rdi
	callq	__ZdlPv
	addq	$48, %rsp
	popq	%rbp
	retq
	.cfi_endproc

	.private_extern	__ZNKSt3__16__nodeIcE6__execERNS_7__stateIcEE
	.globl	__ZNKSt3__16__nodeIcE6__execERNS_7__stateIcEE
	.weak_def_can_be_hidden	__ZNKSt3__16__nodeIcE6__execERNS_7__stateIcEE
	.align	4, 0x90
__ZNKSt3__16__nodeIcE6__execERNS_7__stateIcEE: ## @_ZNKSt3__16__nodeIcE6__execERNS_7__stateIcEE
	.cfi_startproc
## BB#0:
	pushq	%rbp
Ltmp558:
	.cfi_def_cfa_offset 16
Ltmp559:
	.cfi_offset %rbp, -16
	movq	%rsp, %rbp
Ltmp560:
	.cfi_def_cfa_register %rbp
	movq	%rdi, -8(%rbp)
	movq	%rsi, -16(%rbp)
	popq	%rbp
	retq
	.cfi_endproc

	.globl	__ZNSt3__111__end_stateIcED2Ev
	.weak_def_can_be_hidden	__ZNSt3__111__end_stateIcED2Ev
	.align	4, 0x90
__ZNSt3__111__end_stateIcED2Ev:         ## @_ZNSt3__111__end_stateIcED2Ev
	.cfi_startproc
## BB#0:
	pushq	%rbp
Ltmp561:
	.cfi_def_cfa_offset 16
Ltmp562:
	.cfi_offset %rbp, -16
	movq	%rsp, %rbp
Ltmp563:
	.cfi_def_cfa_register %rbp
	movq	%rdi, -16(%rbp)
	movq	-16(%rbp), %rdi
	movq	%rdi, -8(%rbp)
	popq	%rbp
	retq
	.cfi_endproc

	.globl	__ZNSt3__110shared_ptrINS_13__empty_stateIcEEEC1IS2_EEPT_NS_9enable_ifIXsr14is_convertibleIS6_PS2_EE5valueENS3_5__natEE4typeE
	.weak_def_can_be_hidden	__ZNSt3__110shared_ptrINS_13__empty_stateIcEEEC1IS2_EEPT_NS_9enable_ifIXsr14is_convertibleIS6_PS2_EE5valueENS3_5__natEE4typeE
	.align	4, 0x90
__ZNSt3__110shared_ptrINS_13__empty_stateIcEEEC1IS2_EEPT_NS_9enable_ifIXsr14is_convertibleIS6_PS2_EE5valueENS3_5__natEE4typeE: ## @_ZNSt3__110shared_ptrINS_13__empty_stateIcEEEC1IS2_EEPT_NS_9enable_ifIXsr14is_convertibleIS6_PS2_EE5valueENS3_5__natEE4typeE
	.cfi_startproc
## BB#0:
	pushq	%rbp
Ltmp564:
	.cfi_def_cfa_offset 16
Ltmp565:
	.cfi_offset %rbp, -16
	movq	%rsp, %rbp
Ltmp566:
	.cfi_def_cfa_register %rbp
	subq	$32, %rsp
	movl	%edx, -8(%rbp)
	movq	%rdi, -16(%rbp)
	movq	%rsi, -24(%rbp)
	movq	-16(%rbp), %rdi
	movq	-24(%rbp), %rsi
	movl	-8(%rbp), %edx
	callq	__ZNSt3__110shared_ptrINS_13__empty_stateIcEEEC2IS2_EEPT_NS_9enable_ifIXsr14is_convertibleIS6_PS2_EE5valueENS3_5__natEE4typeE
	addq	$32, %rsp
	popq	%rbp
	retq
	.cfi_endproc

	.globl	__ZNSt3__110shared_ptrINS_13__empty_stateIcEEEC2IS2_EEPT_NS_9enable_ifIXsr14is_convertibleIS6_PS2_EE5valueENS3_5__natEE4typeE
	.weak_def_can_be_hidden	__ZNSt3__110shared_ptrINS_13__empty_stateIcEEEC2IS2_EEPT_NS_9enable_ifIXsr14is_convertibleIS6_PS2_EE5valueENS3_5__natEE4typeE
	.align	4, 0x90
__ZNSt3__110shared_ptrINS_13__empty_stateIcEEEC2IS2_EEPT_NS_9enable_ifIXsr14is_convertibleIS6_PS2_EE5valueENS3_5__natEE4typeE: ## @_ZNSt3__110shared_ptrINS_13__empty_stateIcEEEC2IS2_EEPT_NS_9enable_ifIXsr14is_convertibleIS6_PS2_EE5valueENS3_5__natEE4typeE
Lfunc_begin21:
	.cfi_startproc
	.cfi_personality 155, ___gxx_personality_v0
	.cfi_lsda 16, Lexception21
## BB#0:
	pushq	%rbp
Ltmp576:
	.cfi_def_cfa_offset 16
Ltmp577:
	.cfi_offset %rbp, -16
	movq	%rsp, %rbp
Ltmp578:
	.cfi_def_cfa_register %rbp
	pushq	%r15
	pushq	%r14
	pushq	%r13
	pushq	%r12
	pushq	%rbx
	subq	$1048, %rsp             ## imm = 0x418
Ltmp579:
	.cfi_offset %rbx, -56
Ltmp580:
	.cfi_offset %r12, -48
Ltmp581:
	.cfi_offset %r13, -40
Ltmp582:
	.cfi_offset %r14, -32
Ltmp583:
	.cfi_offset %r15, -24
	movl	%edx, -896(%rbp)
	movq	%rdi, -904(%rbp)
	movq	%rsi, -912(%rbp)
	movq	-904(%rbp), %rdi
	movq	%rsi, (%rdi)
	movq	-912(%rbp), %rsi
	leaq	-920(%rbp), %rax
	movq	%rax, -880(%rbp)
	movq	%rsi, -888(%rbp)
	movq	-880(%rbp), %rax
	movq	%rax, -848(%rbp)
	movq	%rsi, -856(%rbp)
	movq	-848(%rbp), %rax
	leaq	-856(%rbp), %rsi
	movq	%rsi, -840(%rbp)
	movq	-856(%rbp), %rsi
	movq	%rax, -824(%rbp)
	movq	%rsi, -832(%rbp)
	movq	-824(%rbp), %rax
	movq	%rax, -808(%rbp)
	movq	%rsi, -816(%rbp)
	movq	-808(%rbp), %rax
	leaq	-816(%rbp), %rsi
	movq	%rsi, -800(%rbp)
	movq	-816(%rbp), %rsi
	movq	%rax, -784(%rbp)
	movq	%rsi, -792(%rbp)
	movq	-784(%rbp), %rax
	movq	%rax, -776(%rbp)
	leaq	-792(%rbp), %rsi
	movq	%rsi, -768(%rbp)
	movq	-792(%rbp), %rsi
	movq	%rsi, (%rax)
Ltmp567:
	movl	$32, %edx
	movl	%edx, %eax
	movq	%rdi, -952(%rbp)        ## 8-byte Spill
	movq	%rax, %rdi
	callq	__Znwm
Ltmp568:
	movq	%rax, -960(%rbp)        ## 8-byte Spill
	jmp	LBB65_1
LBB65_1:
	leaq	-384(%rbp), %rax
	leaq	-392(%rbp), %rcx
	leaq	-424(%rbp), %rdx
	leaq	-416(%rbp), %rsi
	leaq	-528(%rbp), %rdi
	leaq	-280(%rbp), %r8
	leaq	-264(%rbp), %r9
	leaq	-296(%rbp), %r10
	leaq	-312(%rbp), %r11
	leaq	-552(%rbp), %rbx
	leaq	-520(%rbp), %r14
	movq	__ZTVNSt3__120__shared_ptr_pointerIPNS_13__empty_stateIcEENS_14default_deleteIS2_EENS_9allocatorIS2_EEEE@GOTPCREL(%rip), %r15
	addq	$16, %r15
	movq	__ZTVNSt3__119__shared_weak_countE@GOTPCREL(%rip), %r12
	addq	$16, %r12
	movq	__ZTVNSt3__114__shared_countE@GOTPCREL(%rip), %r13
	addq	$16, %r13
	movq	%rax, -968(%rbp)        ## 8-byte Spill
	leaq	-944(%rbp), %rax
	movq	%rax, -976(%rbp)        ## 8-byte Spill
	leaq	-936(%rbp), %rax
	movq	%rax, -984(%rbp)        ## 8-byte Spill
	movq	-960(%rbp), %rax        ## 8-byte Reload
	movq	%rax, -992(%rbp)        ## 8-byte Spill
	movq	-912(%rbp), %rax
	movq	%rax, -1000(%rbp)       ## 8-byte Spill
	movq	-984(%rbp), %rax        ## 8-byte Reload
	movq	%rax, -760(%rbp)
	movq	-760(%rbp), %rax
	movq	%rax, -752(%rbp)
	movq	-976(%rbp), %rax        ## 8-byte Reload
	movq	%rax, -624(%rbp)
	movq	-624(%rbp), %rax
	movq	%rax, -616(%rbp)
	movq	-992(%rbp), %rax        ## 8-byte Reload
	movq	%rax, -600(%rbp)
	movq	-1000(%rbp), %rax       ## 8-byte Reload
	movq	%rax, -608(%rbp)
	movq	-600(%rbp), %rax
	movq	%rax, -1008(%rbp)       ## 8-byte Spill
	movq	-608(%rbp), %rax
	movq	%rax, -1016(%rbp)       ## 8-byte Spill
	movq	-1008(%rbp), %rax       ## 8-byte Reload
	movq	%rax, -536(%rbp)
	movq	-1016(%rbp), %rax       ## 8-byte Reload
	movq	%rax, -544(%rbp)
	movq	-536(%rbp), %rax
	movq	%rax, -1024(%rbp)       ## 8-byte Spill
	movq	%rax, -504(%rbp)
	movq	$0, -512(%rbp)
	movq	-504(%rbp), %rax
	movq	%rax, -1032(%rbp)       ## 8-byte Spill
	movq	%rax, -1040(%rbp)       ## 8-byte Spill
	movq	-512(%rbp), %rax
	movq	%rax, -1048(%rbp)       ## 8-byte Spill
	movq	-1040(%rbp), %rax       ## 8-byte Reload
	movq	%rax, -488(%rbp)
	movq	-1048(%rbp), %rax       ## 8-byte Reload
	movq	%rax, -496(%rbp)
	movq	-488(%rbp), %rax
	movq	%r13, (%rax)
	movq	-496(%rbp), %r13
	movq	%r13, 8(%rax)
	movq	-1032(%rbp), %rax       ## 8-byte Reload
	movq	%r12, (%rax)
	movq	-512(%rbp), %r12
	movq	%r12, 16(%rax)
	movq	-1024(%rbp), %r12       ## 8-byte Reload
	movq	%r15, (%r12)
	addq	$24, %r12
	movq	-544(%rbp), %r15
	movq	%r14, -480(%rbp)
	movq	%rbx, -336(%rbp)
	movq	%r15, -344(%rbp)
	movq	-336(%rbp), %rbx
	movq	-344(%rbp), %r14
	movq	%rbx, -304(%rbp)
	movq	%r14, -312(%rbp)
	movq	-304(%rbp), %rbx
	movq	%r11, -288(%rbp)
	movq	-288(%rbp), %r11
	movq	(%r11), %r11
	movq	%r10, -240(%rbp)
	movq	%rbx, -272(%rbp)
	movq	%r11, -280(%rbp)
	movq	-272(%rbp), %r10
	movq	%r9, -256(%rbp)
	movq	%r8, -248(%rbp)
	movq	-248(%rbp), %r8
	movq	(%r8), %r8
	movq	%r8, (%r10)
	movq	%rdi, -352(%rbp)
	movq	-552(%rbp), %rdi
	movq	%rdi, -456(%rbp)
	movq	%r12, -472(%rbp)
	movq	-472(%rbp), %rdi
	movq	-456(%rbp), %r8
	movq	%r8, -416(%rbp)
	movq	%rdi, -432(%rbp)
	movq	-432(%rbp), %rdi
	movq	%rsi, -408(%rbp)
	movq	-408(%rbp), %rsi
	movq	(%rsi), %rsi
	movq	%rsi, -440(%rbp)
	movq	%rdx, -360(%rbp)
	movq	-440(%rbp), %rdx
	movq	%rdx, -384(%rbp)
	movq	%rdi, -400(%rbp)
	movq	-400(%rbp), %rdx
	movq	%rcx, -376(%rbp)
	movq	-968(%rbp), %rcx        ## 8-byte Reload
	movq	%rcx, -368(%rbp)
	movq	-368(%rbp), %rsi
	movq	(%rsi), %rsi
	movq	%rsi, (%rdx)
## BB#2:
	leaq	-920(%rbp), %rax
	movq	-992(%rbp), %rcx        ## 8-byte Reload
	movq	-952(%rbp), %rdx        ## 8-byte Reload
	movq	%rcx, 8(%rdx)
	movq	%rax, -104(%rbp)
	movq	-104(%rbp), %rcx
	movq	%rcx, -96(%rbp)
	movq	-96(%rbp), %rsi
	movq	%rsi, -88(%rbp)
	movq	-88(%rbp), %rsi
	movq	(%rsi), %rsi
	movq	%rsi, -112(%rbp)
	movq	%rcx, -80(%rbp)
	movq	-80(%rbp), %rcx
	movq	%rcx, -72(%rbp)
	movq	-72(%rbp), %rcx
	movq	$0, (%rcx)
	movq	-912(%rbp), %rcx
	movq	-912(%rbp), %rsi
	movq	%rdx, -48(%rbp)
	movq	%rcx, -56(%rbp)
	movq	%rsi, -64(%rbp)
	movq	%rax, -232(%rbp)
	movq	-232(%rbp), %rax
	movq	%rax, -224(%rbp)
	movq	-224(%rbp), %rax
	movq	%rax, -200(%rbp)
	movq	$0, -208(%rbp)
	movq	-200(%rbp), %rax
	movq	%rax, -192(%rbp)
	movq	-192(%rbp), %rcx
	movq	%rcx, -184(%rbp)
	movq	-184(%rbp), %rcx
	movq	(%rcx), %rcx
	movq	%rcx, -216(%rbp)
	movq	-208(%rbp), %rcx
	movq	%rax, -144(%rbp)
	movq	-144(%rbp), %rsi
	movq	%rsi, -136(%rbp)
	movq	-136(%rbp), %rsi
	movq	%rcx, (%rsi)
	cmpq	$0, -216(%rbp)
	movq	%rax, -1056(%rbp)       ## 8-byte Spill
	je	LBB65_8
## BB#3:
	movq	-1056(%rbp), %rax       ## 8-byte Reload
	movq	%rax, -128(%rbp)
	movq	-128(%rbp), %rcx
	movq	%rcx, -120(%rbp)
	movq	-120(%rbp), %rcx
	movq	-216(%rbp), %rdx
	movq	%rcx, -152(%rbp)
	movq	%rdx, -160(%rbp)
	movq	-160(%rbp), %rcx
	cmpq	$0, %rcx
	movq	%rcx, -1064(%rbp)       ## 8-byte Spill
	je	LBB65_7
## BB#4:
	movq	-1064(%rbp), %rax       ## 8-byte Reload
	movq	(%rax), %rcx
	movq	8(%rcx), %rcx
Ltmp573:
	movq	%rax, %rdi
	callq	*%rcx
Ltmp574:
	jmp	LBB65_5
LBB65_5:
	jmp	LBB65_7
LBB65_6:
Ltmp575:
	movl	%edx, %ecx
	movq	%rax, -168(%rbp)
	movl	%ecx, -172(%rbp)
	movq	-168(%rbp), %rdi
	callq	___cxa_call_unexpected
LBB65_7:
	jmp	LBB65_8
LBB65_8:
	addq	$1048, %rsp             ## imm = 0x418
	popq	%rbx
	popq	%r12
	popq	%r13
	popq	%r14
	popq	%r15
	popq	%rbp
	retq
LBB65_9:
Ltmp569:
	movl	%edx, %ecx
	movq	%rax, -928(%rbp)
	movl	%ecx, -932(%rbp)
## BB#10:
	leaq	-920(%rbp), %rax
	movq	%rax, -744(%rbp)
	movq	-744(%rbp), %rax
	movq	%rax, -736(%rbp)
	movq	-736(%rbp), %rax
	movq	%rax, -712(%rbp)
	movq	$0, -720(%rbp)
	movq	-712(%rbp), %rax
	movq	%rax, -704(%rbp)
	movq	-704(%rbp), %rcx
	movq	%rcx, -696(%rbp)
	movq	-696(%rbp), %rcx
	movq	(%rcx), %rcx
	movq	%rcx, -728(%rbp)
	movq	-720(%rbp), %rcx
	movq	%rax, -656(%rbp)
	movq	-656(%rbp), %rdx
	movq	%rdx, -648(%rbp)
	movq	-648(%rbp), %rdx
	movq	%rcx, (%rdx)
	cmpq	$0, -728(%rbp)
	movq	%rax, -1072(%rbp)       ## 8-byte Spill
	je	LBB65_16
## BB#11:
	movq	-1072(%rbp), %rax       ## 8-byte Reload
	movq	%rax, -640(%rbp)
	movq	-640(%rbp), %rcx
	movq	%rcx, -632(%rbp)
	movq	-632(%rbp), %rcx
	movq	-728(%rbp), %rdx
	movq	%rcx, -664(%rbp)
	movq	%rdx, -672(%rbp)
	movq	-672(%rbp), %rcx
	cmpq	$0, %rcx
	movq	%rcx, -1080(%rbp)       ## 8-byte Spill
	je	LBB65_15
## BB#12:
	movq	-1080(%rbp), %rax       ## 8-byte Reload
	movq	(%rax), %rcx
	movq	8(%rcx), %rcx
Ltmp570:
	movq	%rax, %rdi
	callq	*%rcx
Ltmp571:
	jmp	LBB65_13
LBB65_13:
	jmp	LBB65_15
LBB65_14:
Ltmp572:
	movl	%edx, %ecx
	movq	%rax, -680(%rbp)
	movl	%ecx, -684(%rbp)
	movq	-680(%rbp), %rdi
	callq	___cxa_call_unexpected
LBB65_15:
	jmp	LBB65_16
LBB65_16:
	jmp	LBB65_17
LBB65_17:
	jmp	LBB65_18
LBB65_18:
	movq	-928(%rbp), %rdi
	callq	__Unwind_Resume
Lfunc_end21:
	.cfi_endproc
	.section	__TEXT,__gcc_except_tab
	.align	2
GCC_except_table65:
Lexception21:
	.byte	255                     ## @LPStart Encoding = omit
	.byte	155                     ## @TType Encoding = indirect pcrel sdata4
	.byte	77                      ## @TType base offset
	.byte	3                       ## Call site Encoding = udata4
	.byte	65                      ## Call site table length
Lset437 = Ltmp567-Lfunc_begin21         ## >> Call Site 1 <<
	.long	Lset437
Lset438 = Ltmp568-Ltmp567               ##   Call between Ltmp567 and Ltmp568
	.long	Lset438
Lset439 = Ltmp569-Lfunc_begin21         ##     jumps to Ltmp569
	.long	Lset439
	.byte	0                       ##   On action: cleanup
Lset440 = Ltmp573-Lfunc_begin21         ## >> Call Site 2 <<
	.long	Lset440
Lset441 = Ltmp574-Ltmp573               ##   Call between Ltmp573 and Ltmp574
	.long	Lset441
Lset442 = Ltmp575-Lfunc_begin21         ##     jumps to Ltmp575
	.long	Lset442
	.byte	1                       ##   On action: 1
Lset443 = Ltmp574-Lfunc_begin21         ## >> Call Site 3 <<
	.long	Lset443
Lset444 = Ltmp570-Ltmp574               ##   Call between Ltmp574 and Ltmp570
	.long	Lset444
	.long	0                       ##     has no landing pad
	.byte	0                       ##   On action: cleanup
Lset445 = Ltmp570-Lfunc_begin21         ## >> Call Site 4 <<
	.long	Lset445
Lset446 = Ltmp571-Ltmp570               ##   Call between Ltmp570 and Ltmp571
	.long	Lset446
Lset447 = Ltmp572-Lfunc_begin21         ##     jumps to Ltmp572
	.long	Lset447
	.byte	5                       ##   On action: 3
Lset448 = Ltmp571-Lfunc_begin21         ## >> Call Site 5 <<
	.long	Lset448
Lset449 = Lfunc_end21-Ltmp571           ##   Call between Ltmp571 and Lfunc_end21
	.long	Lset449
	.long	0                       ##     has no landing pad
	.byte	0                       ##   On action: cleanup
	.byte	127                     ## >> Action Record 1 <<
                                        ##   Filter TypeInfo -1
	.byte	0                       ##   No further actions
	.byte	1                       ## >> Action Record 2 <<
                                        ##   Catch TypeInfo 1
	.byte	0                       ##   No further actions
	.byte	127                     ## >> Action Record 3 <<
                                        ##   Filter TypeInfo -1
	.byte	125                     ##   Continue to action 2
                                        ## >> Catch TypeInfos <<
	.long	0                       ## TypeInfo 1
                                        ## >> Filter TypeInfos <<
	.byte	0
	.align	2

	.section	__TEXT,__text,regular,pure_instructions
	.globl	__ZNSt3__120__shared_ptr_pointerIPNS_13__empty_stateIcEENS_14default_deleteIS2_EENS_9allocatorIS2_EEED1Ev
	.weak_def_can_be_hidden	__ZNSt3__120__shared_ptr_pointerIPNS_13__empty_stateIcEENS_14default_deleteIS2_EENS_9allocatorIS2_EEED1Ev
	.align	4, 0x90
__ZNSt3__120__shared_ptr_pointerIPNS_13__empty_stateIcEENS_14default_deleteIS2_EENS_9allocatorIS2_EEED1Ev: ## @_ZNSt3__120__shared_ptr_pointerIPNS_13__empty_stateIcEENS_14default_deleteIS2_EENS_9allocatorIS2_EEED1Ev
	.cfi_startproc
## BB#0:
	pushq	%rbp
Ltmp584:
	.cfi_def_cfa_offset 16
Ltmp585:
	.cfi_offset %rbp, -16
	movq	%rsp, %rbp
Ltmp586:
	.cfi_def_cfa_register %rbp
	subq	$16, %rsp
	movq	%rdi, -8(%rbp)
	movq	-8(%rbp), %rdi
	callq	__ZNSt3__120__shared_ptr_pointerIPNS_13__empty_stateIcEENS_14default_deleteIS2_EENS_9allocatorIS2_EEED2Ev
	addq	$16, %rsp
	popq	%rbp
	retq
	.cfi_endproc

	.globl	__ZNSt3__120__shared_ptr_pointerIPNS_13__empty_stateIcEENS_14default_deleteIS2_EENS_9allocatorIS2_EEED0Ev
	.weak_def_can_be_hidden	__ZNSt3__120__shared_ptr_pointerIPNS_13__empty_stateIcEENS_14default_deleteIS2_EENS_9allocatorIS2_EEED0Ev
	.align	4, 0x90
__ZNSt3__120__shared_ptr_pointerIPNS_13__empty_stateIcEENS_14default_deleteIS2_EENS_9allocatorIS2_EEED0Ev: ## @_ZNSt3__120__shared_ptr_pointerIPNS_13__empty_stateIcEENS_14default_deleteIS2_EENS_9allocatorIS2_EEED0Ev
Lfunc_begin22:
	.cfi_startproc
	.cfi_personality 155, ___gxx_personality_v0
	.cfi_lsda 16, Lexception22
## BB#0:
	pushq	%rbp
Ltmp590:
	.cfi_def_cfa_offset 16
Ltmp591:
	.cfi_offset %rbp, -16
	movq	%rsp, %rbp
Ltmp592:
	.cfi_def_cfa_register %rbp
	subq	$32, %rsp
	movq	%rdi, -8(%rbp)
	movq	%rdi, %rax
Ltmp587:
	movq	%rax, -32(%rbp)         ## 8-byte Spill
	callq	__ZNSt3__120__shared_ptr_pointerIPNS_13__empty_stateIcEENS_14default_deleteIS2_EENS_9allocatorIS2_EEED1Ev
Ltmp588:
	jmp	LBB67_1
LBB67_1:
	movq	-32(%rbp), %rax         ## 8-byte Reload
	movq	%rax, %rdi
	callq	__ZdlPv
	addq	$32, %rsp
	popq	%rbp
	retq
LBB67_2:
Ltmp589:
	movl	%edx, %ecx
	movq	%rax, -16(%rbp)
	movl	%ecx, -20(%rbp)
	movq	-32(%rbp), %rax         ## 8-byte Reload
	movq	%rax, %rdi
	callq	__ZdlPv
## BB#3:
	movq	-16(%rbp), %rdi
	callq	__Unwind_Resume
Lfunc_end22:
	.cfi_endproc
	.section	__TEXT,__gcc_except_tab
	.align	2
GCC_except_table67:
Lexception22:
	.byte	255                     ## @LPStart Encoding = omit
	.byte	155                     ## @TType Encoding = indirect pcrel sdata4
	.asciz	"\234"                  ## @TType base offset
	.byte	3                       ## Call site Encoding = udata4
	.byte	26                      ## Call site table length
Lset450 = Ltmp587-Lfunc_begin22         ## >> Call Site 1 <<
	.long	Lset450
Lset451 = Ltmp588-Ltmp587               ##   Call between Ltmp587 and Ltmp588
	.long	Lset451
Lset452 = Ltmp589-Lfunc_begin22         ##     jumps to Ltmp589
	.long	Lset452
	.byte	0                       ##   On action: cleanup
Lset453 = Ltmp588-Lfunc_begin22         ## >> Call Site 2 <<
	.long	Lset453
Lset454 = Lfunc_end22-Ltmp588           ##   Call between Ltmp588 and Lfunc_end22
	.long	Lset454
	.long	0                       ##     has no landing pad
	.byte	0                       ##   On action: cleanup
	.align	2

	.section	__TEXT,__text,regular,pure_instructions
	.globl	__ZNSt3__120__shared_ptr_pointerIPNS_13__empty_stateIcEENS_14default_deleteIS2_EENS_9allocatorIS2_EEE16__on_zero_sharedEv
	.weak_def_can_be_hidden	__ZNSt3__120__shared_ptr_pointerIPNS_13__empty_stateIcEENS_14default_deleteIS2_EENS_9allocatorIS2_EEE16__on_zero_sharedEv
	.align	4, 0x90
__ZNSt3__120__shared_ptr_pointerIPNS_13__empty_stateIcEENS_14default_deleteIS2_EENS_9allocatorIS2_EEE16__on_zero_sharedEv: ## @_ZNSt3__120__shared_ptr_pointerIPNS_13__empty_stateIcEENS_14default_deleteIS2_EENS_9allocatorIS2_EEE16__on_zero_sharedEv
Lfunc_begin23:
	.cfi_startproc
	.cfi_personality 155, ___gxx_personality_v0
	.cfi_lsda 16, Lexception23
## BB#0:
	pushq	%rbp
Ltmp596:
	.cfi_def_cfa_offset 16
Ltmp597:
	.cfi_offset %rbp, -16
	movq	%rsp, %rbp
Ltmp598:
	.cfi_def_cfa_register %rbp
	subq	$160, %rsp
	movq	%rdi, -136(%rbp)
	movq	-136(%rbp), %rdi
	movq	%rdi, %rax
	addq	$24, %rax
	movq	%rax, -128(%rbp)
	movq	-128(%rbp), %rax
	movq	%rax, -120(%rbp)
	movq	-120(%rbp), %rax
	movq	%rax, -48(%rbp)
	movq	-48(%rbp), %rax
	movq	%rax, -40(%rbp)
	movq	-40(%rbp), %rax
	movq	%rdi, %rcx
	addq	$24, %rcx
	movq	%rcx, -32(%rbp)
	movq	-32(%rbp), %rcx
	movq	%rcx, -24(%rbp)
	movq	-24(%rbp), %rcx
	movq	%rcx, -16(%rbp)
	movq	-16(%rbp), %rcx
	movq	%rcx, -8(%rbp)
	movq	-8(%rbp), %rcx
	movq	(%rcx), %rcx
	movq	%rax, -56(%rbp)
	movq	%rcx, -64(%rbp)
	movq	-64(%rbp), %rax
	cmpq	$0, %rax
	movq	%rdi, -144(%rbp)        ## 8-byte Spill
	movq	%rax, -152(%rbp)        ## 8-byte Spill
	je	LBB68_4
## BB#1:
	movq	-152(%rbp), %rax        ## 8-byte Reload
	movq	(%rax), %rcx
	movq	8(%rcx), %rcx
Ltmp593:
	movq	%rax, %rdi
	callq	*%rcx
Ltmp594:
	jmp	LBB68_2
LBB68_2:
	jmp	LBB68_4
LBB68_3:
Ltmp595:
	movl	%edx, %ecx
	movq	%rax, -72(%rbp)
	movl	%ecx, -76(%rbp)
	movq	-72(%rbp), %rdi
	callq	___cxa_call_unexpected
LBB68_4:
	movq	-144(%rbp), %rax        ## 8-byte Reload
	addq	$24, %rax
	movq	%rax, -96(%rbp)
	movq	-96(%rbp), %rax
	movq	%rax, -88(%rbp)
	movq	-88(%rbp), %rax
	movq	%rax, -112(%rbp)
	movq	-112(%rbp), %rax
	movq	%rax, -104(%rbp)
	addq	$160, %rsp
	popq	%rbp
	retq
Lfunc_end23:
	.cfi_endproc
	.section	__TEXT,__gcc_except_tab
	.align	2
GCC_except_table68:
Lexception23:
	.byte	255                     ## @LPStart Encoding = omit
	.byte	155                     ## @TType Encoding = indirect pcrel sdata4
	.asciz	"\236\200\200"          ## @TType base offset
	.byte	3                       ## Call site Encoding = udata4
	.byte	26                      ## Call site table length
Lset455 = Ltmp593-Lfunc_begin23         ## >> Call Site 1 <<
	.long	Lset455
Lset456 = Ltmp594-Ltmp593               ##   Call between Ltmp593 and Ltmp594
	.long	Lset456
Lset457 = Ltmp595-Lfunc_begin23         ##     jumps to Ltmp595
	.long	Lset457
	.byte	1                       ##   On action: 1
Lset458 = Ltmp594-Lfunc_begin23         ## >> Call Site 2 <<
	.long	Lset458
Lset459 = Lfunc_end23-Ltmp594           ##   Call between Ltmp594 and Lfunc_end23
	.long	Lset459
	.long	0                       ##     has no landing pad
	.byte	0                       ##   On action: cleanup
	.byte	127                     ## >> Action Record 1 <<
                                        ##   Filter TypeInfo -1
	.byte	0                       ##   No further actions
                                        ## >> Filter TypeInfos <<
	.byte	0
	.align	2

	.section	__TEXT,__text,regular,pure_instructions
	.globl	__ZNKSt3__120__shared_ptr_pointerIPNS_13__empty_stateIcEENS_14default_deleteIS2_EENS_9allocatorIS2_EEE13__get_deleterERKSt9type_info
	.weak_def_can_be_hidden	__ZNKSt3__120__shared_ptr_pointerIPNS_13__empty_stateIcEENS_14default_deleteIS2_EENS_9allocatorIS2_EEE13__get_deleterERKSt9type_info
	.align	4, 0x90
__ZNKSt3__120__shared_ptr_pointerIPNS_13__empty_stateIcEENS_14default_deleteIS2_EENS_9allocatorIS2_EEE13__get_deleterERKSt9type_info: ## @_ZNKSt3__120__shared_ptr_pointerIPNS_13__empty_stateIcEENS_14default_deleteIS2_EENS_9allocatorIS2_EEE13__get_deleterERKSt9type_info
	.cfi_startproc
## BB#0:
	pushq	%rbp
Ltmp599:
	.cfi_def_cfa_offset 16
Ltmp600:
	.cfi_offset %rbp, -16
	movq	%rsp, %rbp
Ltmp601:
	.cfi_def_cfa_register %rbp
	movq	__ZTINSt3__114default_deleteINS_13__empty_stateIcEEEE@GOTPCREL(%rip), %rax
	movq	%rdi, -64(%rbp)
	movq	%rsi, -72(%rbp)
	movq	-64(%rbp), %rsi
	movq	-72(%rbp), %rdi
	movq	%rdi, -48(%rbp)
	movq	%rax, -56(%rbp)
	movq	-48(%rbp), %rax
	movq	8(%rax), %rax
	movq	-56(%rbp), %rdi
	cmpq	8(%rdi), %rax
	movq	%rsi, -80(%rbp)         ## 8-byte Spill
	jne	LBB69_2
## BB#1:
	movq	-80(%rbp), %rax         ## 8-byte Reload
	addq	$24, %rax
	movq	%rax, -16(%rbp)
	movq	-16(%rbp), %rax
	movq	%rax, -8(%rbp)
	movq	-8(%rbp), %rax
	movq	%rax, -32(%rbp)
	movq	-32(%rbp), %rax
	movq	%rax, -24(%rbp)
	movq	-24(%rbp), %rax
	movq	%rax, -40(%rbp)
	movq	-40(%rbp), %rax
	movq	%rax, -88(%rbp)         ## 8-byte Spill
	jmp	LBB69_3
LBB69_2:
	xorl	%eax, %eax
	movl	%eax, %ecx
	movq	%rcx, -88(%rbp)         ## 8-byte Spill
	jmp	LBB69_3
LBB69_3:
	movq	-88(%rbp), %rax         ## 8-byte Reload
	popq	%rbp
	retq
	.cfi_endproc

	.globl	__ZNSt3__120__shared_ptr_pointerIPNS_13__empty_stateIcEENS_14default_deleteIS2_EENS_9allocatorIS2_EEE21__on_zero_shared_weakEv
	.weak_def_can_be_hidden	__ZNSt3__120__shared_ptr_pointerIPNS_13__empty_stateIcEENS_14default_deleteIS2_EENS_9allocatorIS2_EEE21__on_zero_shared_weakEv
	.align	4, 0x90
__ZNSt3__120__shared_ptr_pointerIPNS_13__empty_stateIcEENS_14default_deleteIS2_EENS_9allocatorIS2_EEE21__on_zero_shared_weakEv: ## @_ZNSt3__120__shared_ptr_pointerIPNS_13__empty_stateIcEENS_14default_deleteIS2_EENS_9allocatorIS2_EEE21__on_zero_shared_weakEv
	.cfi_startproc
## BB#0:
	pushq	%rbp
Ltmp602:
	.cfi_def_cfa_offset 16
Ltmp603:
	.cfi_offset %rbp, -16
	movq	%rsp, %rbp
Ltmp604:
	.cfi_def_cfa_register %rbp
	subq	$144, %rsp
	leaq	-144(%rbp), %rax
	movq	%rdi, -136(%rbp)
	movq	-136(%rbp), %rdi
	movq	%rdi, %rcx
	addq	$24, %rcx
	movq	%rcx, -128(%rbp)
	movq	-128(%rbp), %rcx
	movq	%rcx, -120(%rbp)
	movq	-120(%rbp), %rcx
	movq	%rax, -56(%rbp)
	movq	%rcx, -64(%rbp)
	movq	-56(%rbp), %rcx
	movq	-64(%rbp), %rdx
	movq	%rcx, -40(%rbp)
	movq	%rdx, -48(%rbp)
	movq	%rdi, %rcx
	addq	$24, %rcx
	movq	%rcx, -16(%rbp)
	movq	-16(%rbp), %rcx
